
Debug/bin/robotic-vehicle-firmware.elf:     file format elf32-littlearm


Disassembly of section .text:

00000000 <g_pfnVectors>:
       0:	ec 2e 00 20 3d 3e 00 00 a5 3e 00 00 b1 11 00 00     ... =>...>......
      10:	a5 3e 00 00 a5 3e 00 00 a5 3e 00 00 00 00 00 00     .>...>...>......
	...
      2c:	fd 53 00 00 a5 3e 00 00 00 00 00 00 11 55 00 00     .S...>.......U..
      3c:	4d 55 00 00 a5 3e 00 00 a5 3e 00 00 a5 3e 00 00     MU...>...>...>..
      4c:	a5 3e 00 00 a5 3e 00 00 a5 3e 00 00 21 16 00 00     .>...>...>..!...
      5c:	a5 3e 00 00 a5 3e 00 00 01 01 00 00 a5 3e 00 00     .>...>.......>..
      6c:	a5 3e 00 00 a5 3e 00 00 0d 01 00 00 a5 3e 00 00     .>...>.......>..
      7c:	a5 3e 00 00 a5 3e 00 00 a5 3e 00 00 a5 3e 00 00     .>...>...>...>..
      8c:	a5 3e 00 00 a5 3e 00 00 a5 3e 00 00 a5 3e 00 00     .>...>...>...>..
      9c:	a5 3e 00 00 a5 3e 00 00 a5 3e 00 00 a5 3e 00 00     .>...>...>...>..
      ac:	a5 3e 00 00 a5 3e 00 00 a5 3e 00 00 a5 3e 00 00     .>...>...>...>..
      bc:	a5 3e 00 00 a5 3e 00 00 a5 3e 00 00 a5 3e 00 00     .>...>...>...>..
      cc:	a5 3e 00 00 a5 3e 00 00 a5 3e 00 00 c9 02 00 00     .>...>...>......
      dc:	a5 3e 00 00 a5 3e 00 00 a5 3e 00 00 a5 3e 00 00     .>...>...>...>..
      ec:	a5 3e 00 00 a5 3e 00 00 a5 3e 00 00 a5 3e 00 00     .>...>...>...>..
      fc:	a5 3e 00 00                                         .>..

00000100 <PWMFault_IRQHandler>:
     100:	b480      	push	{r7}
     102:	af00      	add	r7, sp, #0
     104:	46bd      	mov	sp, r7
     106:	bc80      	pop	{r7}
     108:	4770      	bx	lr
     10a:	bf00      	nop

0000010c <QEI0_IRQHandler>:
     10c:	b580      	push	{r7, lr}
     10e:	b084      	sub	sp, #16
     110:	af00      	add	r7, sp, #0
     112:	f04f 0300 	mov.w	r3, #0
     116:	60bb      	str	r3, [r7, #8]
     118:	f44f 4040 	mov.w	r0, #49152	; 0xc000
     11c:	f2c4 0002 	movt	r0, #16386	; 0x4002
     120:	f04f 0101 	mov.w	r1, #1
     124:	f005 fac4 	bl	56b0 <QEIIntStatus>
     128:	4603      	mov	r3, r0
     12a:	2b04      	cmp	r3, #4
     12c:	f000 80c4 	beq.w	2b8 <QEI0_IRQHandler+0x1ac>
     130:	2b08      	cmp	r3, #8
     132:	d002      	beq.n	13a <QEI0_IRQHandler+0x2e>
     134:	2b02      	cmp	r3, #2
     136:	d00e      	beq.n	156 <QEI0_IRQHandler+0x4a>
     138:	e0bc      	b.n	2b4 <QEI0_IRQHandler+0x1a8>
     13a:	f642 1320 	movw	r3, #10528	; 0x2920
     13e:	f2c2 0300 	movt	r3, #8192	; 0x2000
     142:	8d1b      	ldrh	r3, [r3, #40]	; 0x28
     144:	f103 0301 	add.w	r3, r3, #1
     148:	b29a      	uxth	r2, r3
     14a:	f642 1320 	movw	r3, #10528	; 0x2920
     14e:	f2c2 0300 	movt	r3, #8192	; 0x2000
     152:	851a      	strh	r2, [r3, #40]	; 0x28
     154:	e0b3      	b.n	2be <QEI0_IRQHandler+0x1b2>
     156:	f005 f9a1 	bl	549c <vPortEnterCritical>
     15a:	f44f 4040 	mov.w	r0, #49152	; 0xc000
     15e:	f2c4 0002 	movt	r0, #16386	; 0x4002
     162:	f005 fa83 	bl	566c <QEIVelocityGet>
     166:	4603      	mov	r3, r0
     168:	b29b      	uxth	r3, r3
     16a:	80fb      	strh	r3, [r7, #6]
     16c:	f44f 4040 	mov.w	r0, #49152	; 0xc000
     170:	f2c4 0002 	movt	r0, #16386	; 0x4002
     174:	f005 fa38 	bl	55e8 <QEIDirectionGet>
     178:	4603      	mov	r3, r0
     17a:	2b00      	cmp	r3, #0
     17c:	da06      	bge.n	18c <QEI0_IRQHandler+0x80>
     17e:	88fb      	ldrh	r3, [r7, #6]
     180:	b29b      	uxth	r3, r3
     182:	f1c3 0300 	rsb	r3, r3, #0
     186:	b29b      	uxth	r3, r3
     188:	b29b      	uxth	r3, r3
     18a:	80fb      	strh	r3, [r7, #6]
     18c:	f04f 0300 	mov.w	r3, #0
     190:	713b      	strb	r3, [r7, #4]
     192:	f005 f995 	bl	54c0 <vPortExitCritical>
     196:	f44f 4040 	mov.w	r0, #49152	; 0xc000
     19a:	f2c4 0002 	movt	r0, #16386	; 0x4002
     19e:	f04f 010e 	mov.w	r1, #14
     1a2:	f005 fa9d 	bl	56e0 <QEIIntClear>
     1a6:	f240 0314 	movw	r3, #20
     1aa:	f2c2 0300 	movt	r3, #8192	; 0x2000
     1ae:	6819      	ldr	r1, [r3, #0]
     1b0:	f107 0202 	add.w	r2, r7, #2
     1b4:	f107 0308 	add.w	r3, r7, #8
     1b8:	4608      	mov	r0, r1
     1ba:	4611      	mov	r1, r2
     1bc:	461a      	mov	r2, r3
     1be:	f004 ff83 	bl	50c8 <xQueueReceiveFromISR>
     1c2:	4603      	mov	r3, r0
     1c4:	2b01      	cmp	r3, #1
     1c6:	d15f      	bne.n	288 <QEI0_IRQHandler+0x17c>
     1c8:	887b      	ldrh	r3, [r7, #2]
     1ca:	2b00      	cmp	r3, #0
     1cc:	d10a      	bne.n	1e4 <QEI0_IRQHandler+0xd8>
     1ce:	f44f 4000 	mov.w	r0, #32768	; 0x8000
     1d2:	f2c4 0002 	movt	r0, #16386	; 0x4002
     1d6:	f04f 0103 	mov.w	r1, #3
     1da:	f04f 0200 	mov.w	r2, #0
     1de:	f001 fc35 	bl	1a4c <PWMOutputState>
     1e2:	e051      	b.n	288 <QEI0_IRQHandler+0x17c>
     1e4:	887b      	ldrh	r3, [r7, #2]
     1e6:	b21b      	sxth	r3, r3
     1e8:	2b00      	cmp	r3, #0
     1ea:	da2a      	bge.n	242 <QEI0_IRQHandler+0x136>
     1ec:	887b      	ldrh	r3, [r7, #2]
     1ee:	b29b      	uxth	r3, r3
     1f0:	f1c3 0300 	rsb	r3, r3, #0
     1f4:	b29b      	uxth	r3, r3
     1f6:	b29b      	uxth	r3, r3
     1f8:	807b      	strh	r3, [r7, #2]
     1fa:	f005 f94f 	bl	549c <vPortEnterCritical>
     1fe:	887b      	ldrh	r3, [r7, #2]
     200:	b21b      	sxth	r3, r3
     202:	f44f 4000 	mov.w	r0, #32768	; 0x8000
     206:	f2c4 0002 	movt	r0, #16386	; 0x4002
     20a:	f04f 0141 	mov.w	r1, #65	; 0x41
     20e:	461a      	mov	r2, r3
     210:	f001 fbe6 	bl	19e0 <PWMPulseWidthSet>
     214:	f44f 4000 	mov.w	r0, #32768	; 0x8000
     218:	f2c4 0002 	movt	r0, #16386	; 0x4002
     21c:	f04f 0102 	mov.w	r1, #2
     220:	f04f 0201 	mov.w	r2, #1
     224:	f001 fc12 	bl	1a4c <PWMOutputState>
     228:	f44f 4000 	mov.w	r0, #32768	; 0x8000
     22c:	f2c4 0002 	movt	r0, #16386	; 0x4002
     230:	f04f 0101 	mov.w	r1, #1
     234:	f04f 0200 	mov.w	r2, #0
     238:	f001 fc08 	bl	1a4c <PWMOutputState>
     23c:	f005 f940 	bl	54c0 <vPortExitCritical>
     240:	e022      	b.n	288 <QEI0_IRQHandler+0x17c>
     242:	f005 f92b 	bl	549c <vPortEnterCritical>
     246:	887b      	ldrh	r3, [r7, #2]
     248:	b21b      	sxth	r3, r3
     24a:	f44f 4000 	mov.w	r0, #32768	; 0x8000
     24e:	f2c4 0002 	movt	r0, #16386	; 0x4002
     252:	f04f 0140 	mov.w	r1, #64	; 0x40
     256:	461a      	mov	r2, r3
     258:	f001 fbc2 	bl	19e0 <PWMPulseWidthSet>
     25c:	f44f 4000 	mov.w	r0, #32768	; 0x8000
     260:	f2c4 0002 	movt	r0, #16386	; 0x4002
     264:	f04f 0101 	mov.w	r1, #1
     268:	f04f 0201 	mov.w	r2, #1
     26c:	f001 fbee 	bl	1a4c <PWMOutputState>
     270:	f44f 4000 	mov.w	r0, #32768	; 0x8000
     274:	f2c4 0002 	movt	r0, #16386	; 0x4002
     278:	f04f 0102 	mov.w	r1, #2
     27c:	f04f 0200 	mov.w	r2, #0
     280:	f001 fbe4 	bl	1a4c <PWMOutputState>
     284:	f005 f91c 	bl	54c0 <vPortExitCritical>
     288:	f240 0310 	movw	r3, #16
     28c:	f2c2 0300 	movt	r3, #8192	; 0x2000
     290:	6819      	ldr	r1, [r3, #0]
     292:	f107 0204 	add.w	r2, r7, #4
     296:	f107 030c 	add.w	r3, r7, #12
     29a:	4608      	mov	r0, r1
     29c:	4611      	mov	r1, r2
     29e:	461a      	mov	r2, r3
     2a0:	f04f 0300 	mov.w	r3, #0
     2a4:	f004 fdd8 	bl	4e58 <xQueueGenericSendFromISR>
     2a8:	68fb      	ldr	r3, [r7, #12]
     2aa:	2b00      	cmp	r3, #0
     2ac:	d006      	beq.n	2bc <QEI0_IRQHandler+0x1b0>
     2ae:	f005 f8e9 	bl	5484 <vPortYieldFromISR>
     2b2:	e003      	b.n	2bc <QEI0_IRQHandler+0x1b0>
     2b4:	bf00      	nop
     2b6:	e002      	b.n	2be <QEI0_IRQHandler+0x1b2>
     2b8:	bf00      	nop
     2ba:	e000      	b.n	2be <QEI0_IRQHandler+0x1b2>
     2bc:	bf00      	nop
     2be:	f107 0710 	add.w	r7, r7, #16
     2c2:	46bd      	mov	sp, r7
     2c4:	bd80      	pop	{r7, pc}
     2c6:	bf00      	nop

000002c8 <QEI1_IRQHandler>:
     2c8:	b580      	push	{r7, lr}
     2ca:	b084      	sub	sp, #16
     2cc:	af00      	add	r7, sp, #0
     2ce:	f04f 0300 	mov.w	r3, #0
     2d2:	60bb      	str	r3, [r7, #8]
     2d4:	f44f 4050 	mov.w	r0, #53248	; 0xd000
     2d8:	f2c4 0002 	movt	r0, #16386	; 0x4002
     2dc:	f04f 0101 	mov.w	r1, #1
     2e0:	f005 f9e6 	bl	56b0 <QEIIntStatus>
     2e4:	4603      	mov	r3, r0
     2e6:	2b04      	cmp	r3, #4
     2e8:	f000 80c6 	beq.w	478 <QEI1_IRQHandler+0x1b0>
     2ec:	2b08      	cmp	r3, #8
     2ee:	d002      	beq.n	2f6 <QEI1_IRQHandler+0x2e>
     2f0:	2b02      	cmp	r3, #2
     2f2:	d010      	beq.n	316 <QEI1_IRQHandler+0x4e>
     2f4:	e0be      	b.n	474 <QEI1_IRQHandler+0x1ac>
     2f6:	f642 1320 	movw	r3, #10528	; 0x2920
     2fa:	f2c2 0300 	movt	r3, #8192	; 0x2000
     2fe:	f8b3 3058 	ldrh.w	r3, [r3, #88]	; 0x58
     302:	f103 0301 	add.w	r3, r3, #1
     306:	b29a      	uxth	r2, r3
     308:	f642 1320 	movw	r3, #10528	; 0x2920
     30c:	f2c2 0300 	movt	r3, #8192	; 0x2000
     310:	f8a3 2058 	strh.w	r2, [r3, #88]	; 0x58
     314:	e0b3      	b.n	47e <QEI1_IRQHandler+0x1b6>
     316:	f005 f8c1 	bl	549c <vPortEnterCritical>
     31a:	f44f 4050 	mov.w	r0, #53248	; 0xd000
     31e:	f2c4 0002 	movt	r0, #16386	; 0x4002
     322:	f005 f9a3 	bl	566c <QEIVelocityGet>
     326:	4603      	mov	r3, r0
     328:	b29b      	uxth	r3, r3
     32a:	80fb      	strh	r3, [r7, #6]
     32c:	f44f 4050 	mov.w	r0, #53248	; 0xd000
     330:	f2c4 0002 	movt	r0, #16386	; 0x4002
     334:	f005 f958 	bl	55e8 <QEIDirectionGet>
     338:	4603      	mov	r3, r0
     33a:	2b00      	cmp	r3, #0
     33c:	da06      	bge.n	34c <QEI1_IRQHandler+0x84>
     33e:	88fb      	ldrh	r3, [r7, #6]
     340:	b29b      	uxth	r3, r3
     342:	f1c3 0300 	rsb	r3, r3, #0
     346:	b29b      	uxth	r3, r3
     348:	b29b      	uxth	r3, r3
     34a:	80fb      	strh	r3, [r7, #6]
     34c:	f04f 0301 	mov.w	r3, #1
     350:	713b      	strb	r3, [r7, #4]
     352:	f005 f8b5 	bl	54c0 <vPortExitCritical>
     356:	f44f 4050 	mov.w	r0, #53248	; 0xd000
     35a:	f2c4 0002 	movt	r0, #16386	; 0x4002
     35e:	f04f 010e 	mov.w	r1, #14
     362:	f005 f9bd 	bl	56e0 <QEIIntClear>
     366:	f240 0318 	movw	r3, #24
     36a:	f2c2 0300 	movt	r3, #8192	; 0x2000
     36e:	6819      	ldr	r1, [r3, #0]
     370:	f107 0202 	add.w	r2, r7, #2
     374:	f107 0308 	add.w	r3, r7, #8
     378:	4608      	mov	r0, r1
     37a:	4611      	mov	r1, r2
     37c:	461a      	mov	r2, r3
     37e:	f004 fea3 	bl	50c8 <xQueueReceiveFromISR>
     382:	4603      	mov	r3, r0
     384:	2b01      	cmp	r3, #1
     386:	d15f      	bne.n	448 <QEI1_IRQHandler+0x180>
     388:	887b      	ldrh	r3, [r7, #2]
     38a:	2b00      	cmp	r3, #0
     38c:	d10a      	bne.n	3a4 <QEI1_IRQHandler+0xdc>
     38e:	f44f 4000 	mov.w	r0, #32768	; 0x8000
     392:	f2c4 0002 	movt	r0, #16386	; 0x4002
     396:	f04f 010c 	mov.w	r1, #12
     39a:	f04f 0200 	mov.w	r2, #0
     39e:	f001 fb55 	bl	1a4c <PWMOutputState>
     3a2:	e051      	b.n	448 <QEI1_IRQHandler+0x180>
     3a4:	887b      	ldrh	r3, [r7, #2]
     3a6:	b21b      	sxth	r3, r3
     3a8:	2b00      	cmp	r3, #0
     3aa:	da2a      	bge.n	402 <QEI1_IRQHandler+0x13a>
     3ac:	887b      	ldrh	r3, [r7, #2]
     3ae:	b29b      	uxth	r3, r3
     3b0:	f1c3 0300 	rsb	r3, r3, #0
     3b4:	b29b      	uxth	r3, r3
     3b6:	b29b      	uxth	r3, r3
     3b8:	807b      	strh	r3, [r7, #2]
     3ba:	f005 f86f 	bl	549c <vPortEnterCritical>
     3be:	887b      	ldrh	r3, [r7, #2]
     3c0:	b21b      	sxth	r3, r3
     3c2:	f44f 4000 	mov.w	r0, #32768	; 0x8000
     3c6:	f2c4 0002 	movt	r0, #16386	; 0x4002
     3ca:	f04f 0183 	mov.w	r1, #131	; 0x83
     3ce:	461a      	mov	r2, r3
     3d0:	f001 fb06 	bl	19e0 <PWMPulseWidthSet>
     3d4:	f44f 4000 	mov.w	r0, #32768	; 0x8000
     3d8:	f2c4 0002 	movt	r0, #16386	; 0x4002
     3dc:	f04f 0108 	mov.w	r1, #8
     3e0:	f04f 0201 	mov.w	r2, #1
     3e4:	f001 fb32 	bl	1a4c <PWMOutputState>
     3e8:	f44f 4000 	mov.w	r0, #32768	; 0x8000
     3ec:	f2c4 0002 	movt	r0, #16386	; 0x4002
     3f0:	f04f 0104 	mov.w	r1, #4
     3f4:	f04f 0200 	mov.w	r2, #0
     3f8:	f001 fb28 	bl	1a4c <PWMOutputState>
     3fc:	f005 f860 	bl	54c0 <vPortExitCritical>
     400:	e022      	b.n	448 <QEI1_IRQHandler+0x180>
     402:	f005 f84b 	bl	549c <vPortEnterCritical>
     406:	887b      	ldrh	r3, [r7, #2]
     408:	b21b      	sxth	r3, r3
     40a:	f44f 4000 	mov.w	r0, #32768	; 0x8000
     40e:	f2c4 0002 	movt	r0, #16386	; 0x4002
     412:	f04f 0182 	mov.w	r1, #130	; 0x82
     416:	461a      	mov	r2, r3
     418:	f001 fae2 	bl	19e0 <PWMPulseWidthSet>
     41c:	f44f 4000 	mov.w	r0, #32768	; 0x8000
     420:	f2c4 0002 	movt	r0, #16386	; 0x4002
     424:	f04f 0104 	mov.w	r1, #4
     428:	f04f 0201 	mov.w	r2, #1
     42c:	f001 fb0e 	bl	1a4c <PWMOutputState>
     430:	f44f 4000 	mov.w	r0, #32768	; 0x8000
     434:	f2c4 0002 	movt	r0, #16386	; 0x4002
     438:	f04f 0108 	mov.w	r1, #8
     43c:	f04f 0200 	mov.w	r2, #0
     440:	f001 fb04 	bl	1a4c <PWMOutputState>
     444:	f005 f83c 	bl	54c0 <vPortExitCritical>
     448:	f240 0310 	movw	r3, #16
     44c:	f2c2 0300 	movt	r3, #8192	; 0x2000
     450:	6819      	ldr	r1, [r3, #0]
     452:	f107 0204 	add.w	r2, r7, #4
     456:	f107 030c 	add.w	r3, r7, #12
     45a:	4608      	mov	r0, r1
     45c:	4611      	mov	r1, r2
     45e:	461a      	mov	r2, r3
     460:	f04f 0300 	mov.w	r3, #0
     464:	f004 fcf8 	bl	4e58 <xQueueGenericSendFromISR>
     468:	68fb      	ldr	r3, [r7, #12]
     46a:	2b00      	cmp	r3, #0
     46c:	d006      	beq.n	47c <QEI1_IRQHandler+0x1b4>
     46e:	f005 f809 	bl	5484 <vPortYieldFromISR>
     472:	e003      	b.n	47c <QEI1_IRQHandler+0x1b4>
     474:	bf00      	nop
     476:	e002      	b.n	47e <QEI1_IRQHandler+0x1b6>
     478:	bf00      	nop
     47a:	e000      	b.n	47e <QEI1_IRQHandler+0x1b6>
     47c:	bf00      	nop
     47e:	f107 0710 	add.w	r7, r7, #16
     482:	46bd      	mov	sp, r7
     484:	bd80      	pop	{r7, pc}
     486:	bf00      	nop

00000488 <InitADC>:
     488:	b580      	push	{r7, lr}
     48a:	af00      	add	r7, sp, #0
     48c:	f04f 0001 	mov.w	r0, #1
     490:	f2c0 0010 	movt	r0, #16
     494:	f001 fc08 	bl	1ca8 <SysCtlPeripheralEnable>
     498:	f44f 4000 	mov.w	r0, #32768	; 0x8000
     49c:	f2c4 0003 	movt	r0, #16387	; 0x4003
     4a0:	f04f 0140 	mov.w	r1, #64	; 0x40
     4a4:	f004 fb18 	bl	4ad8 <ADCHardwareOversampleConfigure>
     4a8:	f44f 4000 	mov.w	r0, #32768	; 0x8000
     4ac:	f2c4 0003 	movt	r0, #16387	; 0x4003
     4b0:	f04f 0100 	mov.w	r1, #0
     4b4:	f004 f9d8 	bl	4868 <ADCSequenceDisable>
     4b8:	f44f 4000 	mov.w	r0, #32768	; 0x8000
     4bc:	f2c4 0003 	movt	r0, #16387	; 0x4003
     4c0:	f04f 0100 	mov.w	r1, #0
     4c4:	f04f 0200 	mov.w	r2, #0
     4c8:	f04f 0300 	mov.w	r3, #0
     4cc:	f004 f9e2 	bl	4894 <ADCSequenceConfigure>
     4d0:	f44f 4000 	mov.w	r0, #32768	; 0x8000
     4d4:	f2c4 0003 	movt	r0, #16387	; 0x4003
     4d8:	f04f 0100 	mov.w	r1, #0
     4dc:	f04f 0200 	mov.w	r2, #0
     4e0:	f04f 0300 	mov.w	r3, #0
     4e4:	f004 fa14 	bl	4910 <ADCSequenceStepConfigure>
     4e8:	f44f 4000 	mov.w	r0, #32768	; 0x8000
     4ec:	f2c4 0003 	movt	r0, #16387	; 0x4003
     4f0:	f04f 0100 	mov.w	r1, #0
     4f4:	f04f 0201 	mov.w	r2, #1
     4f8:	f04f 0301 	mov.w	r3, #1
     4fc:	f004 fa08 	bl	4910 <ADCSequenceStepConfigure>
     500:	f44f 4000 	mov.w	r0, #32768	; 0x8000
     504:	f2c4 0003 	movt	r0, #16387	; 0x4003
     508:	f04f 0100 	mov.w	r1, #0
     50c:	f04f 0202 	mov.w	r2, #2
     510:	f04f 0362 	mov.w	r3, #98	; 0x62
     514:	f004 f9fc 	bl	4910 <ADCSequenceStepConfigure>
     518:	f44f 4000 	mov.w	r0, #32768	; 0x8000
     51c:	f2c4 0003 	movt	r0, #16387	; 0x4003
     520:	f04f 0100 	mov.w	r1, #0
     524:	f004 f98c 	bl	4840 <ADCSequenceEnable>
     528:	f44f 4000 	mov.w	r0, #32768	; 0x8000
     52c:	f2c4 0003 	movt	r0, #16387	; 0x4003
     530:	f04f 0100 	mov.w	r1, #0
     534:	f004 faae 	bl	4a94 <ADCProcessorTrigger>
     538:	bd80      	pop	{r7, pc}
     53a:	bf00      	nop

0000053c <MeasureADC>:
     53c:	b580      	push	{r7, lr}
     53e:	b084      	sub	sp, #16
     540:	af00      	add	r7, sp, #0
     542:	bf00      	nop
     544:	f44f 4000 	mov.w	r0, #32768	; 0x8000
     548:	f2c4 0003 	movt	r0, #16387	; 0x4003
     54c:	f04f 0100 	mov.w	r1, #0
     550:	f04f 0200 	mov.w	r2, #0
     554:	f004 f936 	bl	47c4 <ADCIntStatus>
     558:	4603      	mov	r3, r0
     55a:	2b00      	cmp	r3, #0
     55c:	d0f2      	beq.n	544 <MeasureADC+0x8>
     55e:	463b      	mov	r3, r7
     560:	f44f 4000 	mov.w	r0, #32768	; 0x8000
     564:	f2c4 0003 	movt	r0, #16387	; 0x4003
     568:	f04f 0100 	mov.w	r1, #0
     56c:	461a      	mov	r2, r3
     56e:	f004 fa5f 	bl	4a30 <ADCSequenceDataGet>
     572:	4603      	mov	r3, r0
     574:	60fb      	str	r3, [r7, #12]
     576:	f44f 4000 	mov.w	r0, #32768	; 0x8000
     57a:	f2c4 0003 	movt	r0, #16387	; 0x4003
     57e:	f04f 0100 	mov.w	r1, #0
     582:	f004 fa87 	bl	4a94 <ADCProcessorTrigger>
     586:	f642 1320 	movw	r3, #10528	; 0x2920
     58a:	f2c2 0300 	movt	r3, #8192	; 0x2000
     58e:	6a5a      	ldr	r2, [r3, #36]	; 0x24
     590:	683b      	ldr	r3, [r7, #0]
     592:	b299      	uxth	r1, r3
     594:	f642 1320 	movw	r3, #10528	; 0x2920
     598:	f2c2 0300 	movt	r3, #8192	; 0x2000
     59c:	8419      	strh	r1, [r3, #32]
     59e:	f642 1320 	movw	r3, #10528	; 0x2920
     5a2:	f2c2 0300 	movt	r3, #8192	; 0x2000
     5a6:	8c1b      	ldrh	r3, [r3, #32]
     5a8:	18d2      	adds	r2, r2, r3
     5aa:	f642 1320 	movw	r3, #10528	; 0x2920
     5ae:	f2c2 0300 	movt	r3, #8192	; 0x2000
     5b2:	625a      	str	r2, [r3, #36]	; 0x24
     5b4:	f642 1320 	movw	r3, #10528	; 0x2920
     5b8:	f2c2 0300 	movt	r3, #8192	; 0x2000
     5bc:	6d5a      	ldr	r2, [r3, #84]	; 0x54
     5be:	687b      	ldr	r3, [r7, #4]
     5c0:	b299      	uxth	r1, r3
     5c2:	f642 1320 	movw	r3, #10528	; 0x2920
     5c6:	f2c2 0300 	movt	r3, #8192	; 0x2000
     5ca:	f8a3 1050 	strh.w	r1, [r3, #80]	; 0x50
     5ce:	f642 1320 	movw	r3, #10528	; 0x2920
     5d2:	f2c2 0300 	movt	r3, #8192	; 0x2000
     5d6:	f8b3 3050 	ldrh.w	r3, [r3, #80]	; 0x50
     5da:	18d2      	adds	r2, r2, r3
     5dc:	f642 1320 	movw	r3, #10528	; 0x2920
     5e0:	f2c2 0300 	movt	r3, #8192	; 0x2000
     5e4:	655a      	str	r2, [r3, #84]	; 0x54
     5e6:	68bb      	ldr	r3, [r7, #8]
     5e8:	b29a      	uxth	r2, r3
     5ea:	f642 1320 	movw	r3, #10528	; 0x2920
     5ee:	f2c2 0300 	movt	r3, #8192	; 0x2000
     5f2:	f8a3 2040 	strh.w	r2, [r3, #64]	; 0x40
     5f6:	f642 1320 	movw	r3, #10528	; 0x2920
     5fa:	f2c2 0300 	movt	r3, #8192	; 0x2000
     5fe:	f8b3 2040 	ldrh.w	r2, [r3, #64]	; 0x40
     602:	f642 1320 	movw	r3, #10528	; 0x2920
     606:	f2c2 0300 	movt	r3, #8192	; 0x2000
     60a:	821a      	strh	r2, [r3, #16]
     60c:	68fb      	ldr	r3, [r7, #12]
     60e:	4618      	mov	r0, r3
     610:	f107 0710 	add.w	r7, r7, #16
     614:	46bd      	mov	sp, r7
     616:	bd80      	pop	{r7, pc}

00000618 <MotorControlInit>:
     618:	b580      	push	{r7, lr}
     61a:	b088      	sub	sp, #32
     61c:	af04      	add	r7, sp, #16
     61e:	6078      	str	r0, [r7, #4]
     620:	f04f 007b 	mov.w	r0, #123	; 0x7b
     624:	f2c2 0000 	movt	r0, #8192	; 0x2000
     628:	f001 fb3e 	bl	1ca8 <SysCtlPeripheralEnable>
     62c:	f04f 1010 	mov.w	r0, #1048592	; 0x100010
     630:	f001 fb3a 	bl	1ca8 <SysCtlPeripheralEnable>
     634:	f44f 40a0 	mov.w	r0, #20480	; 0x5000
     638:	f2c4 0002 	movt	r0, #16386	; 0x4002
     63c:	f04f 0101 	mov.w	r1, #1
     640:	f002 fb98 	bl	2d74 <GPIOPinTypePWM>
     644:	f44f 40c0 	mov.w	r0, #24576	; 0x6000
     648:	f2c4 0002 	movt	r0, #16386	; 0x4002
     64c:	f04f 0102 	mov.w	r1, #2
     650:	f002 fb90 	bl	2d74 <GPIOPinTypePWM>
     654:	f44f 40a0 	mov.w	r0, #20480	; 0x5000
     658:	f2c4 0000 	movt	r0, #16384	; 0x4000
     65c:	f04f 0101 	mov.w	r1, #1
     660:	f002 fb88 	bl	2d74 <GPIOPinTypePWM>
     664:	f44f 40a0 	mov.w	r0, #20480	; 0x5000
     668:	f2c4 0000 	movt	r0, #16384	; 0x4000
     66c:	f04f 0102 	mov.w	r1, #2
     670:	f002 fb80 	bl	2d74 <GPIOPinTypePWM>
     674:	f44f 4000 	mov.w	r0, #32768	; 0x8000
     678:	f2c4 0002 	movt	r0, #16386	; 0x4002
     67c:	f04f 0140 	mov.w	r1, #64	; 0x40
     680:	f04f 0200 	mov.w	r2, #0
     684:	f001 f93c 	bl	1900 <PWMGenConfigure>
     688:	f44f 4000 	mov.w	r0, #32768	; 0x8000
     68c:	f2c4 0002 	movt	r0, #16386	; 0x4002
     690:	f04f 0180 	mov.w	r1, #128	; 0x80
     694:	f04f 0200 	mov.w	r2, #0
     698:	f001 f932 	bl	1900 <PWMGenConfigure>
     69c:	f44f 4000 	mov.w	r0, #32768	; 0x8000
     6a0:	f2c4 0002 	movt	r0, #16386	; 0x4002
     6a4:	f04f 0140 	mov.w	r1, #64	; 0x40
     6a8:	f44f 627a 	mov.w	r2, #4000	; 0xfa0
     6ac:	f001 f960 	bl	1970 <PWMGenPeriodSet>
     6b0:	f44f 4000 	mov.w	r0, #32768	; 0x8000
     6b4:	f2c4 0002 	movt	r0, #16386	; 0x4002
     6b8:	f04f 0180 	mov.w	r1, #128	; 0x80
     6bc:	f44f 627a 	mov.w	r2, #4000	; 0xfa0
     6c0:	f001 f956 	bl	1970 <PWMGenPeriodSet>
     6c4:	f44f 4000 	mov.w	r0, #32768	; 0x8000
     6c8:	f2c4 0002 	movt	r0, #16386	; 0x4002
     6cc:	f04f 0140 	mov.w	r1, #64	; 0x40
     6d0:	f44f 72c8 	mov.w	r2, #400	; 0x190
     6d4:	f001 f984 	bl	19e0 <PWMPulseWidthSet>
     6d8:	f44f 4000 	mov.w	r0, #32768	; 0x8000
     6dc:	f2c4 0002 	movt	r0, #16386	; 0x4002
     6e0:	f04f 0141 	mov.w	r1, #65	; 0x41
     6e4:	f44f 72c8 	mov.w	r2, #400	; 0x190
     6e8:	f001 f97a 	bl	19e0 <PWMPulseWidthSet>
     6ec:	f44f 4000 	mov.w	r0, #32768	; 0x8000
     6f0:	f2c4 0002 	movt	r0, #16386	; 0x4002
     6f4:	f04f 0182 	mov.w	r1, #130	; 0x82
     6f8:	f44f 72c8 	mov.w	r2, #400	; 0x190
     6fc:	f001 f970 	bl	19e0 <PWMPulseWidthSet>
     700:	f44f 4000 	mov.w	r0, #32768	; 0x8000
     704:	f2c4 0002 	movt	r0, #16386	; 0x4002
     708:	f04f 0183 	mov.w	r1, #131	; 0x83
     70c:	f44f 72c8 	mov.w	r2, #400	; 0x190
     710:	f001 f966 	bl	19e0 <PWMPulseWidthSet>
     714:	f44f 4000 	mov.w	r0, #32768	; 0x8000
     718:	f2c4 0002 	movt	r0, #16386	; 0x4002
     71c:	f04f 0140 	mov.w	r1, #64	; 0x40
     720:	f001 f94a 	bl	19b8 <PWMGenEnable>
     724:	f44f 4000 	mov.w	r0, #32768	; 0x8000
     728:	f2c4 0002 	movt	r0, #16386	; 0x4002
     72c:	f04f 0180 	mov.w	r1, #128	; 0x80
     730:	f001 f942 	bl	19b8 <PWMGenEnable>
     734:	f44f 4000 	mov.w	r0, #32768	; 0x8000
     738:	f2c4 0002 	movt	r0, #16386	; 0x4002
     73c:	f04f 010f 	mov.w	r1, #15
     740:	f04f 0200 	mov.w	r2, #0
     744:	f001 f982 	bl	1a4c <PWMOutputState>
     748:	f04f 2040 	mov.w	r0, #1073758208	; 0x40004000
     74c:	f04f 0180 	mov.w	r1, #128	; 0x80
     750:	f002 fadc 	bl	2d0c <GPIOPinTypeGPIOOutput>
     754:	f04f 2040 	mov.w	r0, #1073758208	; 0x40004000
     758:	f04f 0180 	mov.w	r1, #128	; 0x80
     75c:	f04f 027f 	mov.w	r2, #127	; 0x7f
     760:	f002 faa4 	bl	2cac <GPIOPinWrite>
     764:	f44f 40e0 	mov.w	r0, #28672	; 0x7000
     768:	f2c4 0000 	movt	r0, #16384	; 0x4000
     76c:	f04f 0180 	mov.w	r1, #128	; 0x80
     770:	f002 facc 	bl	2d0c <GPIOPinTypeGPIOOutput>
     774:	f44f 40e0 	mov.w	r0, #28672	; 0x7000
     778:	f2c4 0000 	movt	r0, #16384	; 0x4000
     77c:	f04f 0180 	mov.w	r1, #128	; 0x80
     780:	f04f 0280 	mov.w	r2, #128	; 0x80
     784:	f002 fa92 	bl	2cac <GPIOPinWrite>
     788:	f44f 40a0 	mov.w	r0, #20480	; 0x5000
     78c:	f2c4 0002 	movt	r0, #16386	; 0x4002
     790:	f04f 0102 	mov.w	r1, #2
     794:	f002 faba 	bl	2d0c <GPIOPinTypeGPIOOutput>
     798:	f44f 40a0 	mov.w	r0, #20480	; 0x5000
     79c:	f2c4 0002 	movt	r0, #16386	; 0x4002
     7a0:	f04f 0102 	mov.w	r1, #2
     7a4:	f04f 0202 	mov.w	r2, #2
     7a8:	f002 fa80 	bl	2cac <GPIOPinWrite>
     7ac:	f04f 0014 	mov.w	r0, #20
     7b0:	f2c2 0000 	movt	r0, #8192	; 0x2000
     7b4:	f001 fa78 	bl	1ca8 <SysCtlPeripheralEnable>
     7b8:	f44f 7040 	mov.w	r0, #768	; 0x300
     7bc:	f2c1 0000 	movt	r0, #4096	; 0x1000
     7c0:	f001 fa72 	bl	1ca8 <SysCtlPeripheralEnable>
     7c4:	f44f 40c0 	mov.w	r0, #24576	; 0x6000
     7c8:	f2c4 0000 	movt	r0, #16384	; 0x4000
     7cc:	f04f 0110 	mov.w	r1, #16
     7d0:	f002 faea 	bl	2da8 <GPIOPinTypeQEI>
     7d4:	f44f 40c0 	mov.w	r0, #24576	; 0x6000
     7d8:	f2c4 0000 	movt	r0, #16384	; 0x4000
     7dc:	f04f 0140 	mov.w	r1, #64	; 0x40
     7e0:	f002 fae2 	bl	2da8 <GPIOPinTypeQEI>
     7e4:	f44f 4080 	mov.w	r0, #16384	; 0x4000
     7e8:	f2c4 0002 	movt	r0, #16386	; 0x4002
     7ec:	f04f 0108 	mov.w	r1, #8
     7f0:	f002 fada 	bl	2da8 <GPIOPinTypeQEI>
     7f4:	f44f 4080 	mov.w	r0, #16384	; 0x4000
     7f8:	f2c4 0002 	movt	r0, #16386	; 0x4002
     7fc:	f04f 0104 	mov.w	r1, #4
     800:	f002 fad2 	bl	2da8 <GPIOPinTypeQEI>
     804:	f44f 4040 	mov.w	r0, #49152	; 0xc000
     808:	f2c4 0002 	movt	r0, #16386	; 0x4002
     80c:	f04f 0108 	mov.w	r1, #8
     810:	f240 12ff 	movw	r2, #511	; 0x1ff
     814:	f004 fed0 	bl	55b8 <QEIConfigure>
     818:	f44f 4050 	mov.w	r0, #53248	; 0xd000
     81c:	f2c4 0002 	movt	r0, #16386	; 0x4002
     820:	f04f 0108 	mov.w	r1, #8
     824:	f240 12ff 	movw	r2, #511	; 0x1ff
     828:	f004 fec6 	bl	55b8 <QEIConfigure>
     82c:	f44f 4040 	mov.w	r0, #49152	; 0xc000
     830:	f2c4 0002 	movt	r0, #16386	; 0x4002
     834:	f04f 0100 	mov.w	r1, #0
     838:	f641 227f 	movw	r2, #6783	; 0x1a7f
     83c:	f2c0 0206 	movt	r2, #6
     840:	f004 fefa 	bl	5638 <QEIVelocityConfigure>
     844:	f44f 4040 	mov.w	r0, #49152	; 0xc000
     848:	f2c4 0002 	movt	r0, #16386	; 0x4002
     84c:	f004 fee4 	bl	5618 <QEIVelocityEnable>
     850:	f44f 4050 	mov.w	r0, #53248	; 0xd000
     854:	f2c4 0002 	movt	r0, #16386	; 0x4002
     858:	f04f 0100 	mov.w	r1, #0
     85c:	f641 227f 	movw	r2, #6783	; 0x1a7f
     860:	f2c0 0206 	movt	r2, #6
     864:	f004 fee8 	bl	5638 <QEIVelocityConfigure>
     868:	f44f 4050 	mov.w	r0, #53248	; 0xd000
     86c:	f2c4 0002 	movt	r0, #16386	; 0x4002
     870:	f004 fed2 	bl	5618 <QEIVelocityEnable>
     874:	f44f 4040 	mov.w	r0, #49152	; 0xc000
     878:	f2c4 0002 	movt	r0, #16386	; 0x4002
     87c:	f04f 0102 	mov.w	r1, #2
     880:	f004 ff02 	bl	5688 <QEIIntEnable>
     884:	f44f 4050 	mov.w	r0, #53248	; 0xd000
     888:	f2c4 0002 	movt	r0, #16386	; 0x4002
     88c:	f04f 0102 	mov.w	r1, #2
     890:	f004 fefa 	bl	5688 <QEIIntEnable>
     894:	f44f 4040 	mov.w	r0, #49152	; 0xc000
     898:	f2c4 0002 	movt	r0, #16386	; 0x4002
     89c:	f004 fe7c 	bl	5598 <QEIEnable>
     8a0:	f44f 4050 	mov.w	r0, #53248	; 0xd000
     8a4:	f2c4 0002 	movt	r0, #16386	; 0x4002
     8a8:	f004 fe76 	bl	5598 <QEIEnable>
     8ac:	f04f 001d 	mov.w	r0, #29
     8b0:	f04f 01a0 	mov.w	r1, #160	; 0xa0
     8b4:	f003 f9b0 	bl	3c18 <IntPrioritySet>
     8b8:	f04f 0036 	mov.w	r0, #54	; 0x36
     8bc:	f04f 01c0 	mov.w	r1, #192	; 0xc0
     8c0:	f003 f9aa 	bl	3c18 <IntPrioritySet>
     8c4:	f04f 001d 	mov.w	r0, #29
     8c8:	f003 f9e0 	bl	3c8c <IntEnable>
     8cc:	f04f 0036 	mov.w	r0, #54	; 0x36
     8d0:	f003 f9dc 	bl	3c8c <IntEnable>
     8d4:	f642 1320 	movw	r3, #10528	; 0x2920
     8d8:	f2c2 0300 	movt	r3, #8192	; 0x2000
     8dc:	f04f 0200 	mov.w	r2, #0
     8e0:	801a      	strh	r2, [r3, #0]
     8e2:	f642 1320 	movw	r3, #10528	; 0x2920
     8e6:	f2c2 0300 	movt	r3, #8192	; 0x2000
     8ea:	881a      	ldrh	r2, [r3, #0]
     8ec:	f642 1320 	movw	r3, #10528	; 0x2920
     8f0:	f2c2 0300 	movt	r3, #8192	; 0x2000
     8f4:	861a      	strh	r2, [r3, #48]	; 0x30
     8f6:	f642 1320 	movw	r3, #10528	; 0x2920
     8fa:	f2c2 0300 	movt	r3, #8192	; 0x2000
     8fe:	4a46      	ldr	r2, [pc, #280]	; (a18 <MotorControlInit+0x400>)
     900:	615a      	str	r2, [r3, #20]
     902:	f642 1320 	movw	r3, #10528	; 0x2920
     906:	f2c2 0300 	movt	r3, #8192	; 0x2000
     90a:	695a      	ldr	r2, [r3, #20]
     90c:	f642 1320 	movw	r3, #10528	; 0x2920
     910:	f2c2 0300 	movt	r3, #8192	; 0x2000
     914:	645a      	str	r2, [r3, #68]	; 0x44
     916:	f642 1320 	movw	r3, #10528	; 0x2920
     91a:	f2c2 0300 	movt	r3, #8192	; 0x2000
     91e:	4a3f      	ldr	r2, [pc, #252]	; (a1c <MotorControlInit+0x404>)
     920:	619a      	str	r2, [r3, #24]
     922:	f642 1320 	movw	r3, #10528	; 0x2920
     926:	f2c2 0300 	movt	r3, #8192	; 0x2000
     92a:	699a      	ldr	r2, [r3, #24]
     92c:	f642 1320 	movw	r3, #10528	; 0x2920
     930:	f2c2 0300 	movt	r3, #8192	; 0x2000
     934:	649a      	str	r2, [r3, #72]	; 0x48
     936:	f7ff fda7 	bl	488 <InitADC>
     93a:	f04f 0002 	mov.w	r0, #2
     93e:	f04f 0104 	mov.w	r1, #4
     942:	f04f 0200 	mov.w	r2, #0
     946:	f004 f947 	bl	4bd8 <xQueueGenericCreate>
     94a:	4602      	mov	r2, r0
     94c:	f240 0310 	movw	r3, #16
     950:	f2c2 0300 	movt	r3, #8192	; 0x2000
     954:	601a      	str	r2, [r3, #0]
     956:	f04f 0001 	mov.w	r0, #1
     95a:	f04f 0102 	mov.w	r1, #2
     95e:	f04f 0200 	mov.w	r2, #0
     962:	f004 f939 	bl	4bd8 <xQueueGenericCreate>
     966:	4602      	mov	r2, r0
     968:	f240 0314 	movw	r3, #20
     96c:	f2c2 0300 	movt	r3, #8192	; 0x2000
     970:	601a      	str	r2, [r3, #0]
     972:	f04f 0001 	mov.w	r0, #1
     976:	f04f 0102 	mov.w	r1, #2
     97a:	f04f 0200 	mov.w	r2, #0
     97e:	f004 f92b 	bl	4bd8 <xQueueGenericCreate>
     982:	4602      	mov	r2, r0
     984:	f240 0318 	movw	r3, #24
     988:	f2c2 0300 	movt	r3, #8192	; 0x2000
     98c:	601a      	str	r2, [r3, #0]
     98e:	f04f 0300 	mov.w	r3, #0
     992:	81fb      	strh	r3, [r7, #14]
     994:	f240 0314 	movw	r3, #20
     998:	f2c2 0300 	movt	r3, #8192	; 0x2000
     99c:	681a      	ldr	r2, [r3, #0]
     99e:	f107 030e 	add.w	r3, r7, #14
     9a2:	4610      	mov	r0, r2
     9a4:	4619      	mov	r1, r3
     9a6:	f04f 020a 	mov.w	r2, #10
     9aa:	f04f 0300 	mov.w	r3, #0
     9ae:	f004 f9ab 	bl	4d08 <xQueueGenericSend>
     9b2:	f240 0318 	movw	r3, #24
     9b6:	f2c2 0300 	movt	r3, #8192	; 0x2000
     9ba:	681a      	ldr	r2, [r3, #0]
     9bc:	f107 030e 	add.w	r3, r7, #14
     9c0:	4610      	mov	r0, r2
     9c2:	4619      	mov	r1, r3
     9c4:	f04f 020a 	mov.w	r2, #10
     9c8:	f04f 0300 	mov.w	r3, #0
     9cc:	f004 f99c 	bl	4d08 <xQueueGenericSend>
     9d0:	f04f 0002 	mov.w	r0, #2
     9d4:	f000 f824 	bl	a20 <MotorControlSetState>
     9d8:	687b      	ldr	r3, [r7, #4]
     9da:	9300      	str	r3, [sp, #0]
     9dc:	f04f 0300 	mov.w	r3, #0
     9e0:	9301      	str	r3, [sp, #4]
     9e2:	f04f 0300 	mov.w	r3, #0
     9e6:	9302      	str	r3, [sp, #8]
     9e8:	f04f 0300 	mov.w	r3, #0
     9ec:	9303      	str	r3, [sp, #12]
     9ee:	f640 5031 	movw	r0, #3377	; 0xd31
     9f2:	f2c0 0000 	movt	r0, #0
     9f6:	f646 01c4 	movw	r1, #26820	; 0x68c4
     9fa:	f2c0 0100 	movt	r1, #0
     9fe:	f44f 7280 	mov.w	r2, #256	; 0x100
     a02:	f04f 0300 	mov.w	r3, #0
     a06:	f002 fa03 	bl	2e10 <xTaskGenericCreate>
     a0a:	4603      	mov	r3, r0
     a0c:	4618      	mov	r0, r3
     a0e:	f107 0710 	add.w	r7, r7, #16
     a12:	46bd      	mov	sp, r7
     a14:	bd80      	pop	{r7, pc}
     a16:	bf00      	nop
     a18:	3f666666 	.word	0x3f666666
     a1c:	3e4ccccd 	.word	0x3e4ccccd

00000a20 <MotorControlSetState>:
     a20:	b580      	push	{r7, lr}
     a22:	b082      	sub	sp, #8
     a24:	af00      	add	r7, sp, #0
     a26:	4603      	mov	r3, r0
     a28:	71fb      	strb	r3, [r7, #7]
     a2a:	79fb      	ldrb	r3, [r7, #7]
     a2c:	2b03      	cmp	r3, #3
     a2e:	d87f      	bhi.n	b30 <MotorControlSetState+0x110>
     a30:	a201      	add	r2, pc, #4	; (adr r2, a38 <MotorControlSetState+0x18>)
     a32:	f852 f023 	ldr.w	pc, [r2, r3, lsl #2]
     a36:	bf00      	nop
     a38:	00000ae9 	.word	0x00000ae9
     a3c:	00000aa1 	.word	0x00000aa1
     a40:	00000a49 	.word	0x00000a49
     a44:	00000a75 	.word	0x00000a75
     a48:	f04f 2040 	mov.w	r0, #1073758208	; 0x40004000
     a4c:	f04f 0180 	mov.w	r1, #128	; 0x80
     a50:	f002 f95c 	bl	2d0c <GPIOPinTypeGPIOOutput>
     a54:	f04f 2040 	mov.w	r0, #1073758208	; 0x40004000
     a58:	f04f 0180 	mov.w	r1, #128	; 0x80
     a5c:	f04f 027f 	mov.w	r2, #127	; 0x7f
     a60:	f002 f924 	bl	2cac <GPIOPinWrite>
     a64:	f642 1320 	movw	r3, #10528	; 0x2920
     a68:	f2c2 0300 	movt	r3, #8192	; 0x2000
     a6c:	79fa      	ldrb	r2, [r7, #7]
     a6e:	f883 2078 	strb.w	r2, [r3, #120]	; 0x78
     a72:	e05e      	b.n	b32 <MotorControlSetState+0x112>
     a74:	f04f 2040 	mov.w	r0, #1073758208	; 0x40004000
     a78:	f04f 0180 	mov.w	r1, #128	; 0x80
     a7c:	f002 f946 	bl	2d0c <GPIOPinTypeGPIOOutput>
     a80:	f04f 2040 	mov.w	r0, #1073758208	; 0x40004000
     a84:	f04f 0180 	mov.w	r1, #128	; 0x80
     a88:	f04f 027f 	mov.w	r2, #127	; 0x7f
     a8c:	f002 f90e 	bl	2cac <GPIOPinWrite>
     a90:	f642 1320 	movw	r3, #10528	; 0x2920
     a94:	f2c2 0300 	movt	r3, #8192	; 0x2000
     a98:	79fa      	ldrb	r2, [r7, #7]
     a9a:	f883 2078 	strb.w	r2, [r3, #120]	; 0x78
     a9e:	e048      	b.n	b32 <MotorControlSetState+0x112>
     aa0:	f04f 2040 	mov.w	r0, #1073758208	; 0x40004000
     aa4:	f04f 0180 	mov.w	r1, #128	; 0x80
     aa8:	f002 f930 	bl	2d0c <GPIOPinTypeGPIOOutput>
     aac:	f04f 2040 	mov.w	r0, #1073758208	; 0x40004000
     ab0:	f04f 0180 	mov.w	r1, #128	; 0x80
     ab4:	f04f 027f 	mov.w	r2, #127	; 0x7f
     ab8:	f002 f8f8 	bl	2cac <GPIOPinWrite>
     abc:	f642 1320 	movw	r3, #10528	; 0x2920
     ac0:	f2c2 0300 	movt	r3, #8192	; 0x2000
     ac4:	f04f 0200 	mov.w	r2, #0
     ac8:	801a      	strh	r2, [r3, #0]
     aca:	f642 1320 	movw	r3, #10528	; 0x2920
     ace:	f2c2 0300 	movt	r3, #8192	; 0x2000
     ad2:	f04f 0200 	mov.w	r2, #0
     ad6:	861a      	strh	r2, [r3, #48]	; 0x30
     ad8:	f642 1320 	movw	r3, #10528	; 0x2920
     adc:	f2c2 0300 	movt	r3, #8192	; 0x2000
     ae0:	79fa      	ldrb	r2, [r7, #7]
     ae2:	f883 2078 	strb.w	r2, [r3, #120]	; 0x78
     ae6:	e024      	b.n	b32 <MotorControlSetState+0x112>
     ae8:	f04f 2040 	mov.w	r0, #1073758208	; 0x40004000
     aec:	f04f 0180 	mov.w	r1, #128	; 0x80
     af0:	f002 f90c 	bl	2d0c <GPIOPinTypeGPIOOutput>
     af4:	f04f 2040 	mov.w	r0, #1073758208	; 0x40004000
     af8:	f04f 0180 	mov.w	r1, #128	; 0x80
     afc:	f04f 0280 	mov.w	r2, #128	; 0x80
     b00:	f002 f8d4 	bl	2cac <GPIOPinWrite>
     b04:	f642 1320 	movw	r3, #10528	; 0x2920
     b08:	f2c2 0300 	movt	r3, #8192	; 0x2000
     b0c:	f04f 0200 	mov.w	r2, #0
     b10:	801a      	strh	r2, [r3, #0]
     b12:	f642 1320 	movw	r3, #10528	; 0x2920
     b16:	f2c2 0300 	movt	r3, #8192	; 0x2000
     b1a:	f04f 0200 	mov.w	r2, #0
     b1e:	861a      	strh	r2, [r3, #48]	; 0x30
     b20:	f642 1320 	movw	r3, #10528	; 0x2920
     b24:	f2c2 0300 	movt	r3, #8192	; 0x2000
     b28:	79fa      	ldrb	r2, [r7, #7]
     b2a:	f883 2078 	strb.w	r2, [r3, #120]	; 0x78
     b2e:	e000      	b.n	b32 <MotorControlSetState+0x112>
     b30:	bf00      	nop
     b32:	f107 0708 	add.w	r7, r7, #8
     b36:	46bd      	mov	sp, r7
     b38:	bd80      	pop	{r7, pc}
     b3a:	bf00      	nop
     b3c:	0000      	movs	r0, r0
	...

00000b40 <SpeedReg>:
     b40:	b5f0      	push	{r4, r5, r6, r7, lr}
     b42:	b085      	sub	sp, #20
     b44:	af00      	add	r7, sp, #0
     b46:	6078      	str	r0, [r7, #4]
     b48:	460b      	mov	r3, r1
     b4a:	807b      	strh	r3, [r7, #2]
     b4c:	687b      	ldr	r3, [r7, #4]
     b4e:	881b      	ldrh	r3, [r3, #0]
     b50:	b29a      	uxth	r2, r3
     b52:	887b      	ldrh	r3, [r7, #2]
     b54:	1ad3      	subs	r3, r2, r3
     b56:	b29b      	uxth	r3, r3
     b58:	b29a      	uxth	r2, r3
     b5a:	687b      	ldr	r3, [r7, #4]
     b5c:	805a      	strh	r2, [r3, #2]
     b5e:	687b      	ldr	r3, [r7, #4]
     b60:	e9d3 4502 	ldrd	r4, r5, [r3, #8]
     b64:	687b      	ldr	r3, [r7, #4]
     b66:	695e      	ldr	r6, [r3, #20]
     b68:	687b      	ldr	r3, [r7, #4]
     b6a:	885b      	ldrh	r3, [r3, #2]
     b6c:	b21b      	sxth	r3, r3
     b6e:	4618      	mov	r0, r3
     b70:	f005 fc16 	bl	63a0 <__aeabi_i2f>
     b74:	4603      	mov	r3, r0
     b76:	4630      	mov	r0, r6
     b78:	4619      	mov	r1, r3
     b7a:	f005 fc65 	bl	6448 <__aeabi_fmul>
     b7e:	4603      	mov	r3, r0
     b80:	4618      	mov	r0, r3
     b82:	f005 f83d 	bl	5c00 <__aeabi_f2d>
     b86:	4602      	mov	r2, r0
     b88:	460b      	mov	r3, r1
     b8a:	4620      	mov	r0, r4
     b8c:	4629      	mov	r1, r5
     b8e:	f004 fed9 	bl	5944 <__adddf3>
     b92:	4602      	mov	r2, r0
     b94:	460b      	mov	r3, r1
     b96:	e9c7 2302 	strd	r2, r3, [r7, #8]
     b9a:	687b      	ldr	r3, [r7, #4]
     b9c:	e9d3 4502 	ldrd	r4, r5, [r3, #8]
     ba0:	687b      	ldr	r3, [r7, #4]
     ba2:	695a      	ldr	r2, [r3, #20]
     ba4:	687b      	ldr	r3, [r7, #4]
     ba6:	699b      	ldr	r3, [r3, #24]
     ba8:	4610      	mov	r0, r2
     baa:	4619      	mov	r1, r3
     bac:	f005 fc4c 	bl	6448 <__aeabi_fmul>
     bb0:	4603      	mov	r3, r0
     bb2:	461e      	mov	r6, r3
     bb4:	687b      	ldr	r3, [r7, #4]
     bb6:	885b      	ldrh	r3, [r3, #2]
     bb8:	b21b      	sxth	r3, r3
     bba:	4618      	mov	r0, r3
     bbc:	f005 fbf0 	bl	63a0 <__aeabi_i2f>
     bc0:	4603      	mov	r3, r0
     bc2:	4630      	mov	r0, r6
     bc4:	4619      	mov	r1, r3
     bc6:	f005 fc3f 	bl	6448 <__aeabi_fmul>
     bca:	4603      	mov	r3, r0
     bcc:	4618      	mov	r0, r3
     bce:	f005 f817 	bl	5c00 <__aeabi_f2d>
     bd2:	4602      	mov	r2, r0
     bd4:	460b      	mov	r3, r1
     bd6:	4620      	mov	r0, r4
     bd8:	4629      	mov	r1, r5
     bda:	f004 feb3 	bl	5944 <__adddf3>
     bde:	4602      	mov	r2, r0
     be0:	460b      	mov	r3, r1
     be2:	6879      	ldr	r1, [r7, #4]
     be4:	e9c1 2302 	strd	r2, r3, [r1, #8]
     be8:	687b      	ldr	r3, [r7, #4]
     bea:	e9d3 2302 	ldrd	r2, r3, [r3, #8]
     bee:	f04f 0101 	mov.w	r1, #1
     bf2:	460c      	mov	r4, r1
     bf4:	4610      	mov	r0, r2
     bf6:	4619      	mov	r1, r3
     bf8:	a343      	add	r3, pc, #268	; (adr r3, d08 <SpeedReg+0x1c8>)
     bfa:	e9d3 2300 	ldrd	r2, r3, [r3]
     bfe:	f005 fae3 	bl	61c8 <__aeabi_dcmpgt>
     c02:	4603      	mov	r3, r0
     c04:	2b00      	cmp	r3, #0
     c06:	d102      	bne.n	c0e <SpeedReg+0xce>
     c08:	f04f 0300 	mov.w	r3, #0
     c0c:	461c      	mov	r4, r3
     c0e:	b2e3      	uxtb	r3, r4
     c10:	2b00      	cmp	r3, #0
     c12:	d005      	beq.n	c20 <SpeedReg+0xe0>
     c14:	6879      	ldr	r1, [r7, #4]
     c16:	a33c      	add	r3, pc, #240	; (adr r3, d08 <SpeedReg+0x1c8>)
     c18:	e9d3 2300 	ldrd	r2, r3, [r3]
     c1c:	e9c1 2302 	strd	r2, r3, [r1, #8]
     c20:	687b      	ldr	r3, [r7, #4]
     c22:	e9d3 2302 	ldrd	r2, r3, [r3, #8]
     c26:	f04f 0101 	mov.w	r1, #1
     c2a:	460c      	mov	r4, r1
     c2c:	4610      	mov	r0, r2
     c2e:	4619      	mov	r1, r3
     c30:	a337      	add	r3, pc, #220	; (adr r3, d10 <SpeedReg+0x1d0>)
     c32:	e9d3 2300 	ldrd	r2, r3, [r3]
     c36:	f005 faa9 	bl	618c <__aeabi_dcmplt>
     c3a:	4603      	mov	r3, r0
     c3c:	2b00      	cmp	r3, #0
     c3e:	d102      	bne.n	c46 <SpeedReg+0x106>
     c40:	f04f 0300 	mov.w	r3, #0
     c44:	461c      	mov	r4, r3
     c46:	b2e3      	uxtb	r3, r4
     c48:	2b00      	cmp	r3, #0
     c4a:	d005      	beq.n	c58 <SpeedReg+0x118>
     c4c:	6879      	ldr	r1, [r7, #4]
     c4e:	a330      	add	r3, pc, #192	; (adr r3, d10 <SpeedReg+0x1d0>)
     c50:	e9d3 2300 	ldrd	r2, r3, [r3]
     c54:	e9c1 2302 	strd	r2, r3, [r1, #8]
     c58:	e9d7 0102 	ldrd	r0, r1, [r7, #8]
     c5c:	a32e      	add	r3, pc, #184	; (adr r3, d18 <SpeedReg+0x1d8>)
     c5e:	e9d3 2300 	ldrd	r2, r3, [r3]
     c62:	f005 f821 	bl	5ca8 <__aeabi_dmul>
     c66:	4602      	mov	r2, r0
     c68:	460b      	mov	r3, r1
     c6a:	4614      	mov	r4, r2
     c6c:	461d      	mov	r5, r3
     c6e:	687b      	ldr	r3, [r7, #4]
     c70:	8a1b      	ldrh	r3, [r3, #16]
     c72:	4618      	mov	r0, r3
     c74:	f004 ffb2 	bl	5bdc <__aeabi_i2d>
     c78:	4602      	mov	r2, r0
     c7a:	460b      	mov	r3, r1
     c7c:	4620      	mov	r0, r4
     c7e:	4629      	mov	r1, r5
     c80:	f005 f93c 	bl	5efc <__aeabi_ddiv>
     c84:	4602      	mov	r2, r0
     c86:	460b      	mov	r3, r1
     c88:	e9c7 2302 	strd	r2, r3, [r7, #8]
     c8c:	f04f 0301 	mov.w	r3, #1
     c90:	461c      	mov	r4, r3
     c92:	e9d7 0102 	ldrd	r0, r1, [r7, #8]
     c96:	a322      	add	r3, pc, #136	; (adr r3, d20 <SpeedReg+0x1e0>)
     c98:	e9d3 2300 	ldrd	r2, r3, [r3]
     c9c:	f005 fa94 	bl	61c8 <__aeabi_dcmpgt>
     ca0:	4603      	mov	r3, r0
     ca2:	2b00      	cmp	r3, #0
     ca4:	d102      	bne.n	cac <SpeedReg+0x16c>
     ca6:	f04f 0300 	mov.w	r3, #0
     caa:	461c      	mov	r4, r3
     cac:	b2e3      	uxtb	r3, r4
     cae:	2b00      	cmp	r3, #0
     cb0:	d004      	beq.n	cbc <SpeedReg+0x17c>
     cb2:	a31b      	add	r3, pc, #108	; (adr r3, d20 <SpeedReg+0x1e0>)
     cb4:	e9d3 2300 	ldrd	r2, r3, [r3]
     cb8:	e9c7 2302 	strd	r2, r3, [r7, #8]
     cbc:	f04f 0301 	mov.w	r3, #1
     cc0:	461c      	mov	r4, r3
     cc2:	e9d7 0102 	ldrd	r0, r1, [r7, #8]
     cc6:	a318      	add	r3, pc, #96	; (adr r3, d28 <SpeedReg+0x1e8>)
     cc8:	e9d3 2300 	ldrd	r2, r3, [r3]
     ccc:	f005 fa5e 	bl	618c <__aeabi_dcmplt>
     cd0:	4603      	mov	r3, r0
     cd2:	2b00      	cmp	r3, #0
     cd4:	d102      	bne.n	cdc <SpeedReg+0x19c>
     cd6:	f04f 0300 	mov.w	r3, #0
     cda:	461c      	mov	r4, r3
     cdc:	b2e3      	uxtb	r3, r4
     cde:	2b00      	cmp	r3, #0
     ce0:	d004      	beq.n	cec <SpeedReg+0x1ac>
     ce2:	a311      	add	r3, pc, #68	; (adr r3, d28 <SpeedReg+0x1e8>)
     ce4:	e9d3 2300 	ldrd	r2, r3, [r3]
     ce8:	e9c7 2302 	strd	r2, r3, [r7, #8]
     cec:	e9d7 0102 	ldrd	r0, r1, [r7, #8]
     cf0:	f005 fa74 	bl	61dc <__aeabi_d2iz>
     cf4:	4603      	mov	r3, r0
     cf6:	b29b      	uxth	r3, r3
     cf8:	b21b      	sxth	r3, r3
     cfa:	4618      	mov	r0, r3
     cfc:	f107 0714 	add.w	r7, r7, #20
     d00:	46bd      	mov	sp, r7
     d02:	bdf0      	pop	{r4, r5, r6, r7, pc}
     d04:	f3af 8000 	nop.w
     d08:	00000000 	.word	0x00000000
     d0c:	408f4000 	.word	0x408f4000
     d10:	00000000 	.word	0x00000000
     d14:	c08f4000 	.word	0xc08f4000
     d18:	00000000 	.word	0x00000000
     d1c:	4080d000 	.word	0x4080d000
     d20:	00000000 	.word	0x00000000
     d24:	40af4000 	.word	0x40af4000
     d28:	00000000 	.word	0x00000000
     d2c:	c0af4000 	.word	0xc0af4000

00000d30 <MotorControl_task>:
     d30:	b580      	push	{r7, lr}
     d32:	b088      	sub	sp, #32
     d34:	af00      	add	r7, sp, #0
     d36:	6078      	str	r0, [r7, #4]
     d38:	f04f 0300 	mov.w	r3, #0
     d3c:	82fb      	strh	r3, [r7, #22]
     d3e:	f04f 0300 	mov.w	r3, #0
     d42:	77fb      	strb	r3, [r7, #31]
     d44:	f04f 0064 	mov.w	r0, #100	; 0x64
     d48:	f002 f956 	bl	2ff8 <vTaskDelay>
     d4c:	e000      	b.n	d50 <MotorControl_task+0x20>
     d4e:	bf00      	nop
     d50:	f240 0310 	movw	r3, #16
     d54:	f2c2 0300 	movt	r3, #8192	; 0x2000
     d58:	681a      	ldr	r2, [r3, #0]
     d5a:	f107 0318 	add.w	r3, r7, #24
     d5e:	4610      	mov	r0, r2
     d60:	4619      	mov	r1, r3
     d62:	f04f 0264 	mov.w	r2, #100	; 0x64
     d66:	f04f 0300 	mov.w	r3, #0
     d6a:	f004 f8d3 	bl	4f14 <xQueueGenericReceive>
     d6e:	4603      	mov	r3, r0
     d70:	2b01      	cmp	r3, #1
     d72:	f040 80b4 	bne.w	ede <MotorControl_task+0x1ae>
     d76:	7e3b      	ldrb	r3, [r7, #24]
     d78:	77fb      	strb	r3, [r7, #31]
     d7a:	7ffb      	ldrb	r3, [r7, #31]
     d7c:	2b00      	cmp	r3, #0
     d7e:	d152      	bne.n	e26 <MotorControl_task+0xf6>
     d80:	8b7a      	ldrh	r2, [r7, #26]
     d82:	f642 13a0 	movw	r3, #10656	; 0x29a0
     d86:	f2c2 0300 	movt	r3, #8192	; 0x2000
     d8a:	801a      	strh	r2, [r3, #0]
     d8c:	f642 1320 	movw	r3, #10528	; 0x2920
     d90:	f2c2 0300 	movt	r3, #8192	; 0x2000
     d94:	f893 3078 	ldrb.w	r3, [r3, #120]	; 0x78
     d98:	2b02      	cmp	r3, #2
     d9a:	d002      	beq.n	da2 <MotorControl_task+0x72>
     d9c:	2b03      	cmp	r3, #3
     d9e:	d00c      	beq.n	dba <MotorControl_task+0x8a>
     da0:	e012      	b.n	dc8 <MotorControl_task+0x98>
     da2:	8b7b      	ldrh	r3, [r7, #26]
     da4:	b21b      	sxth	r3, r3
     da6:	f642 1020 	movw	r0, #10528	; 0x2920
     daa:	f2c2 0000 	movt	r0, #8192	; 0x2000
     dae:	4619      	mov	r1, r3
     db0:	f7ff fec6 	bl	b40 <SpeedReg>
     db4:	4603      	mov	r3, r0
     db6:	82fb      	strh	r3, [r7, #22]
     db8:	e00a      	b.n	dd0 <MotorControl_task+0xa0>
     dba:	f642 1320 	movw	r3, #10528	; 0x2920
     dbe:	f2c2 0300 	movt	r3, #8192	; 0x2000
     dc2:	881b      	ldrh	r3, [r3, #0]
     dc4:	82fb      	strh	r3, [r7, #22]
     dc6:	e003      	b.n	dd0 <MotorControl_task+0xa0>
     dc8:	f04f 0300 	mov.w	r3, #0
     dcc:	82fb      	strh	r3, [r7, #22]
     dce:	bf00      	nop
     dd0:	8afa      	ldrh	r2, [r7, #22]
     dd2:	f642 13a0 	movw	r3, #10656	; 0x29a0
     dd6:	f2c2 0300 	movt	r3, #8192	; 0x2000
     dda:	809a      	strh	r2, [r3, #4]
     ddc:	f642 1320 	movw	r3, #10528	; 0x2920
     de0:	f2c2 0300 	movt	r3, #8192	; 0x2000
     de4:	885a      	ldrh	r2, [r3, #2]
     de6:	f642 13a0 	movw	r3, #10656	; 0x29a0
     dea:	f2c2 0300 	movt	r3, #8192	; 0x2000
     dee:	811a      	strh	r2, [r3, #8]
     df0:	f240 0314 	movw	r3, #20
     df4:	f2c2 0300 	movt	r3, #8192	; 0x2000
     df8:	681a      	ldr	r2, [r3, #0]
     dfa:	f107 0316 	add.w	r3, r7, #22
     dfe:	4610      	mov	r0, r2
     e00:	4619      	mov	r1, r3
     e02:	f04f 020a 	mov.w	r2, #10
     e06:	f04f 0300 	mov.w	r3, #0
     e0a:	f003 ff7d 	bl	4d08 <xQueueGenericSend>
     e0e:	4603      	mov	r3, r0
     e10:	2b01      	cmp	r3, #1
     e12:	d06c      	beq.n	eee <MotorControl_task+0x1be>
     e14:	f04f 0004 	mov.w	r0, #4
     e18:	f7ff fe02 	bl	a20 <MotorControlSetState>
     e1c:	f04f 0004 	mov.w	r0, #4
     e20:	f003 f99c 	bl	415c <SetError>
     e24:	e063      	b.n	eee <MotorControl_task+0x1be>
     e26:	7ffb      	ldrb	r3, [r7, #31]
     e28:	2b01      	cmp	r3, #1
     e2a:	d14f      	bne.n	ecc <MotorControl_task+0x19c>
     e2c:	8b7a      	ldrh	r2, [r7, #26]
     e2e:	f642 13a0 	movw	r3, #10656	; 0x29a0
     e32:	f2c2 0300 	movt	r3, #8192	; 0x2000
     e36:	805a      	strh	r2, [r3, #2]
     e38:	f642 1320 	movw	r3, #10528	; 0x2920
     e3c:	f2c2 0300 	movt	r3, #8192	; 0x2000
     e40:	f893 3078 	ldrb.w	r3, [r3, #120]	; 0x78
     e44:	2b02      	cmp	r3, #2
     e46:	d002      	beq.n	e4e <MotorControl_task+0x11e>
     e48:	2b03      	cmp	r3, #3
     e4a:	d009      	beq.n	e60 <MotorControl_task+0x130>
     e4c:	e00f      	b.n	e6e <MotorControl_task+0x13e>
     e4e:	8b7b      	ldrh	r3, [r7, #26]
     e50:	b21b      	sxth	r3, r3
     e52:	4853      	ldr	r0, [pc, #332]	; (fa0 <MotorControl_task+0x270>)
     e54:	4619      	mov	r1, r3
     e56:	f7ff fe73 	bl	b40 <SpeedReg>
     e5a:	4603      	mov	r3, r0
     e5c:	82fb      	strh	r3, [r7, #22]
     e5e:	e00a      	b.n	e76 <MotorControl_task+0x146>
     e60:	f642 1320 	movw	r3, #10528	; 0x2920
     e64:	f2c2 0300 	movt	r3, #8192	; 0x2000
     e68:	8e1b      	ldrh	r3, [r3, #48]	; 0x30
     e6a:	82fb      	strh	r3, [r7, #22]
     e6c:	e003      	b.n	e76 <MotorControl_task+0x146>
     e6e:	f04f 0300 	mov.w	r3, #0
     e72:	82fb      	strh	r3, [r7, #22]
     e74:	bf00      	nop
     e76:	8afa      	ldrh	r2, [r7, #22]
     e78:	f642 13a0 	movw	r3, #10656	; 0x29a0
     e7c:	f2c2 0300 	movt	r3, #8192	; 0x2000
     e80:	80da      	strh	r2, [r3, #6]
     e82:	f642 1320 	movw	r3, #10528	; 0x2920
     e86:	f2c2 0300 	movt	r3, #8192	; 0x2000
     e8a:	8e5a      	ldrh	r2, [r3, #50]	; 0x32
     e8c:	f642 13a0 	movw	r3, #10656	; 0x29a0
     e90:	f2c2 0300 	movt	r3, #8192	; 0x2000
     e94:	815a      	strh	r2, [r3, #10]
     e96:	f240 0318 	movw	r3, #24
     e9a:	f2c2 0300 	movt	r3, #8192	; 0x2000
     e9e:	681a      	ldr	r2, [r3, #0]
     ea0:	f107 0316 	add.w	r3, r7, #22
     ea4:	4610      	mov	r0, r2
     ea6:	4619      	mov	r1, r3
     ea8:	f04f 020a 	mov.w	r2, #10
     eac:	f04f 0300 	mov.w	r3, #0
     eb0:	f003 ff2a 	bl	4d08 <xQueueGenericSend>
     eb4:	4603      	mov	r3, r0
     eb6:	2b01      	cmp	r3, #1
     eb8:	d019      	beq.n	eee <MotorControl_task+0x1be>
     eba:	f04f 0004 	mov.w	r0, #4
     ebe:	f7ff fdaf 	bl	a20 <MotorControlSetState>
     ec2:	f04f 0004 	mov.w	r0, #4
     ec6:	f003 f949 	bl	415c <SetError>
     eca:	e010      	b.n	eee <MotorControl_task+0x1be>
     ecc:	f04f 0004 	mov.w	r0, #4
     ed0:	f7ff fda6 	bl	a20 <MotorControlSetState>
     ed4:	f04f 0004 	mov.w	r0, #4
     ed8:	f003 f940 	bl	415c <SetError>
     edc:	e007      	b.n	eee <MotorControl_task+0x1be>
     ede:	f04f 0004 	mov.w	r0, #4
     ee2:	f7ff fd9d 	bl	a20 <MotorControlSetState>
     ee6:	f04f 0004 	mov.w	r0, #4
     eea:	f003 f937 	bl	415c <SetError>
     eee:	7ffb      	ldrb	r3, [r7, #31]
     ef0:	2b01      	cmp	r3, #1
     ef2:	f47f af2c 	bne.w	d4e <MotorControl_task+0x1e>
     ef6:	f04f 0301 	mov.w	r3, #1
     efa:	73fb      	strb	r3, [r7, #15]
     efc:	f7ff fb1e 	bl	53c <MeasureADC>
     f00:	f107 030f 	add.w	r3, r7, #15
     f04:	f04f 0016 	mov.w	r0, #22
     f08:	4619      	mov	r1, r3
     f0a:	f04f 0201 	mov.w	r2, #1
     f0e:	f000 fad1 	bl	14b4 <SlipSend>
     f12:	f04f 0011 	mov.w	r0, #17
     f16:	f642 11a0 	movw	r1, #10656	; 0x29a0
     f1a:	f2c2 0100 	movt	r1, #8192	; 0x2000
     f1e:	f04f 020c 	mov.w	r2, #12
     f22:	f000 fac7 	bl	14b4 <SlipSend>
     f26:	f642 1320 	movw	r3, #10528	; 0x2920
     f2a:	f2c2 0300 	movt	r3, #8192	; 0x2000
     f2e:	8c1b      	ldrh	r3, [r3, #32]
     f30:	823b      	strh	r3, [r7, #16]
     f32:	f642 1320 	movw	r3, #10528	; 0x2920
     f36:	f2c2 0300 	movt	r3, #8192	; 0x2000
     f3a:	f8b3 3050 	ldrh.w	r3, [r3, #80]	; 0x50
     f3e:	827b      	strh	r3, [r7, #18]
     f40:	f642 1320 	movw	r3, #10528	; 0x2920
     f44:	f2c2 0300 	movt	r3, #8192	; 0x2000
     f48:	f8b3 3040 	ldrh.w	r3, [r3, #64]	; 0x40
     f4c:	82bb      	strh	r3, [r7, #20]
     f4e:	f107 0310 	add.w	r3, r7, #16
     f52:	f04f 0013 	mov.w	r0, #19
     f56:	4619      	mov	r1, r3
     f58:	f04f 0206 	mov.w	r2, #6
     f5c:	f000 faaa 	bl	14b4 <SlipSend>
     f60:	f04f 0015 	mov.w	r0, #21
     f64:	490f      	ldr	r1, [pc, #60]	; (fa4 <MotorControl_task+0x274>)
     f66:	f04f 0201 	mov.w	r2, #1
     f6a:	f000 faa3 	bl	14b4 <SlipSend>
     f6e:	f642 1320 	movw	r3, #10528	; 0x2920
     f72:	f2c2 0300 	movt	r3, #8192	; 0x2000
     f76:	f8b3 2040 	ldrh.w	r2, [r3, #64]	; 0x40
     f7a:	f240 13f3 	movw	r3, #499	; 0x1f3
     f7e:	429a      	cmp	r2, r3
     f80:	d808      	bhi.n	f94 <MotorControl_task+0x264>
     f82:	f04f 0002 	mov.w	r0, #2
     f86:	f003 f8e9 	bl	415c <SetError>
     f8a:	f04f 0000 	mov.w	r0, #0
     f8e:	f7ff fd47 	bl	a20 <MotorControlSetState>
     f92:	e6dc      	b.n	d4e <MotorControl_task+0x1e>
     f94:	f04f 0002 	mov.w	r0, #2
     f98:	f003 f908 	bl	41ac <ClearError>
     f9c:	e6d7      	b.n	d4e <MotorControl_task+0x1e>
     f9e:	bf00      	nop
     fa0:	20002950 	.word	0x20002950
     fa4:	20002998 	.word	0x20002998

00000fa8 <I2CMasterInitExpClk>:
     fa8:	b580      	push	{r7, lr}
     faa:	b086      	sub	sp, #24
     fac:	af00      	add	r7, sp, #0
     fae:	60f8      	str	r0, [r7, #12]
     fb0:	60b9      	str	r1, [r7, #8]
     fb2:	4613      	mov	r3, r2
     fb4:	71fb      	strb	r3, [r7, #7]
     fb6:	68f8      	ldr	r0, [r7, #12]
     fb8:	f000 f830 	bl	101c <I2CMasterEnable>
     fbc:	79fb      	ldrb	r3, [r7, #7]
     fbe:	2b01      	cmp	r3, #1
     fc0:	d105      	bne.n	fce <I2CMasterInitExpClk+0x26>
     fc2:	f44f 53d4 	mov.w	r3, #6784	; 0x1a80
     fc6:	f2c0 0306 	movt	r3, #6
     fca:	617b      	str	r3, [r7, #20]
     fcc:	e004      	b.n	fd8 <I2CMasterInitExpClk+0x30>
     fce:	f248 63a0 	movw	r3, #34464	; 0x86a0
     fd2:	f2c0 0301 	movt	r3, #1
     fd6:	617b      	str	r3, [r7, #20]
     fd8:	697a      	ldr	r2, [r7, #20]
     fda:	4613      	mov	r3, r2
     fdc:	ea4f 0383 	mov.w	r3, r3, lsl #2
     fe0:	189b      	adds	r3, r3, r2
     fe2:	ea4f 0383 	mov.w	r3, r3, lsl #2
     fe6:	461a      	mov	r2, r3
     fe8:	68bb      	ldr	r3, [r7, #8]
     fea:	18d3      	adds	r3, r2, r3
     fec:	f103 31ff 	add.w	r1, r3, #4294967295
     ff0:	697a      	ldr	r2, [r7, #20]
     ff2:	4613      	mov	r3, r2
     ff4:	ea4f 0383 	mov.w	r3, r3, lsl #2
     ff8:	189b      	adds	r3, r3, r2
     ffa:	ea4f 0383 	mov.w	r3, r3, lsl #2
     ffe:	fbb1 f3f3 	udiv	r3, r1, r3
    1002:	f103 33ff 	add.w	r3, r3, #4294967295
    1006:	613b      	str	r3, [r7, #16]
    1008:	68fb      	ldr	r3, [r7, #12]
    100a:	f103 030c 	add.w	r3, r3, #12
    100e:	693a      	ldr	r2, [r7, #16]
    1010:	601a      	str	r2, [r3, #0]
    1012:	f107 0718 	add.w	r7, r7, #24
    1016:	46bd      	mov	sp, r7
    1018:	bd80      	pop	{r7, pc}
    101a:	bf00      	nop

0000101c <I2CMasterEnable>:
    101c:	b480      	push	{r7}
    101e:	b083      	sub	sp, #12
    1020:	af00      	add	r7, sp, #0
    1022:	6078      	str	r0, [r7, #4]
    1024:	687b      	ldr	r3, [r7, #4]
    1026:	f103 0320 	add.w	r3, r3, #32
    102a:	687a      	ldr	r2, [r7, #4]
    102c:	f102 0220 	add.w	r2, r2, #32
    1030:	6812      	ldr	r2, [r2, #0]
    1032:	f042 0210 	orr.w	r2, r2, #16
    1036:	601a      	str	r2, [r3, #0]
    1038:	f107 070c 	add.w	r7, r7, #12
    103c:	46bd      	mov	sp, r7
    103e:	bc80      	pop	{r7}
    1040:	4770      	bx	lr
    1042:	bf00      	nop

00001044 <I2CMasterSlaveAddrSet>:
    1044:	b480      	push	{r7}
    1046:	b083      	sub	sp, #12
    1048:	af00      	add	r7, sp, #0
    104a:	6078      	str	r0, [r7, #4]
    104c:	4613      	mov	r3, r2
    104e:	460a      	mov	r2, r1
    1050:	70fa      	strb	r2, [r7, #3]
    1052:	70bb      	strb	r3, [r7, #2]
    1054:	687b      	ldr	r3, [r7, #4]
    1056:	78fa      	ldrb	r2, [r7, #3]
    1058:	ea4f 0142 	mov.w	r1, r2, lsl #1
    105c:	78ba      	ldrb	r2, [r7, #2]
    105e:	430a      	orrs	r2, r1
    1060:	601a      	str	r2, [r3, #0]
    1062:	f107 070c 	add.w	r7, r7, #12
    1066:	46bd      	mov	sp, r7
    1068:	bc80      	pop	{r7}
    106a:	4770      	bx	lr

0000106c <I2CMasterBusy>:
    106c:	b480      	push	{r7}
    106e:	b083      	sub	sp, #12
    1070:	af00      	add	r7, sp, #0
    1072:	6078      	str	r0, [r7, #4]
    1074:	687b      	ldr	r3, [r7, #4]
    1076:	f103 0304 	add.w	r3, r3, #4
    107a:	681b      	ldr	r3, [r3, #0]
    107c:	f003 0301 	and.w	r3, r3, #1
    1080:	b2db      	uxtb	r3, r3
    1082:	2b00      	cmp	r3, #0
    1084:	d002      	beq.n	108c <I2CMasterBusy+0x20>
    1086:	f04f 0301 	mov.w	r3, #1
    108a:	e001      	b.n	1090 <I2CMasterBusy+0x24>
    108c:	f04f 0300 	mov.w	r3, #0
    1090:	4618      	mov	r0, r3
    1092:	f107 070c 	add.w	r7, r7, #12
    1096:	46bd      	mov	sp, r7
    1098:	bc80      	pop	{r7}
    109a:	4770      	bx	lr

0000109c <I2CMasterControl>:
    109c:	b480      	push	{r7}
    109e:	b083      	sub	sp, #12
    10a0:	af00      	add	r7, sp, #0
    10a2:	6078      	str	r0, [r7, #4]
    10a4:	6039      	str	r1, [r7, #0]
    10a6:	687b      	ldr	r3, [r7, #4]
    10a8:	f103 0304 	add.w	r3, r3, #4
    10ac:	683a      	ldr	r2, [r7, #0]
    10ae:	601a      	str	r2, [r3, #0]
    10b0:	f107 070c 	add.w	r7, r7, #12
    10b4:	46bd      	mov	sp, r7
    10b6:	bc80      	pop	{r7}
    10b8:	4770      	bx	lr
    10ba:	bf00      	nop

000010bc <I2CMasterErr>:
    10bc:	b480      	push	{r7}
    10be:	b085      	sub	sp, #20
    10c0:	af00      	add	r7, sp, #0
    10c2:	6078      	str	r0, [r7, #4]
    10c4:	687b      	ldr	r3, [r7, #4]
    10c6:	f103 0304 	add.w	r3, r3, #4
    10ca:	681b      	ldr	r3, [r3, #0]
    10cc:	60fb      	str	r3, [r7, #12]
    10ce:	68fb      	ldr	r3, [r7, #12]
    10d0:	f003 0301 	and.w	r3, r3, #1
    10d4:	b2db      	uxtb	r3, r3
    10d6:	2b00      	cmp	r3, #0
    10d8:	d002      	beq.n	10e0 <I2CMasterErr+0x24>
    10da:	f04f 0300 	mov.w	r3, #0
    10de:	e00a      	b.n	10f6 <I2CMasterErr+0x3a>
    10e0:	68fb      	ldr	r3, [r7, #12]
    10e2:	f003 0312 	and.w	r3, r3, #18
    10e6:	2b00      	cmp	r3, #0
    10e8:	d003      	beq.n	10f2 <I2CMasterErr+0x36>
    10ea:	68fb      	ldr	r3, [r7, #12]
    10ec:	f003 031c 	and.w	r3, r3, #28
    10f0:	e001      	b.n	10f6 <I2CMasterErr+0x3a>
    10f2:	f04f 0300 	mov.w	r3, #0
    10f6:	4618      	mov	r0, r3
    10f8:	f107 0714 	add.w	r7, r7, #20
    10fc:	46bd      	mov	sp, r7
    10fe:	bc80      	pop	{r7}
    1100:	4770      	bx	lr
    1102:	bf00      	nop

00001104 <I2CMasterDataPut>:
    1104:	b480      	push	{r7}
    1106:	b083      	sub	sp, #12
    1108:	af00      	add	r7, sp, #0
    110a:	6078      	str	r0, [r7, #4]
    110c:	460b      	mov	r3, r1
    110e:	70fb      	strb	r3, [r7, #3]
    1110:	687b      	ldr	r3, [r7, #4]
    1112:	f103 0308 	add.w	r3, r3, #8
    1116:	78fa      	ldrb	r2, [r7, #3]
    1118:	601a      	str	r2, [r3, #0]
    111a:	f107 070c 	add.w	r7, r7, #12
    111e:	46bd      	mov	sp, r7
    1120:	bc80      	pop	{r7}
    1122:	4770      	bx	lr

00001124 <I2CMasterDataGet>:
    1124:	b480      	push	{r7}
    1126:	b083      	sub	sp, #12
    1128:	af00      	add	r7, sp, #0
    112a:	6078      	str	r0, [r7, #4]
    112c:	687b      	ldr	r3, [r7, #4]
    112e:	f103 0308 	add.w	r3, r3, #8
    1132:	681b      	ldr	r3, [r3, #0]
    1134:	4618      	mov	r0, r3
    1136:	f107 070c 	add.w	r7, r7, #12
    113a:	46bd      	mov	sp, r7
    113c:	bc80      	pop	{r7}
    113e:	4770      	bx	lr

00001140 <SystemInit>:
    1140:	b580      	push	{r7, lr}
    1142:	af00      	add	r7, sp, #0
    1144:	f44f 7030 	mov.w	r0, #704	; 0x2c0
    1148:	f2c0 40c0 	movt	r0, #1216	; 0x4c0
    114c:	f000 fddc 	bl	1d08 <SysCtlClockSet>
    1150:	bd80      	pop	{r7, pc}
    1152:	bf00      	nop

00001154 <vApplicationStackOverflowHook>:
    1154:	b580      	push	{r7, lr}
    1156:	b082      	sub	sp, #8
    1158:	af00      	add	r7, sp, #0
    115a:	6078      	str	r0, [r7, #4]
    115c:	6039      	str	r1, [r7, #0]
    115e:	f44f 40a0 	mov.w	r0, #20480	; 0x5000
    1162:	f2c4 0002 	movt	r0, #16386	; 0x4002
    1166:	f04f 0104 	mov.w	r1, #4
    116a:	f04f 02fb 	mov.w	r2, #251	; 0xfb
    116e:	f001 fd9d 	bl	2cac <GPIOPinWrite>
    1172:	e7fe      	b.n	1172 <vApplicationStackOverflowHook+0x1e>

00001174 <prvGetRegistersFromStack>:
    1174:	b480      	push	{r7}
    1176:	b08b      	sub	sp, #44	; 0x2c
    1178:	af00      	add	r7, sp, #0
    117a:	6078      	str	r0, [r7, #4]
    117c:	687b      	ldr	r3, [r7, #4]
    117e:	681b      	ldr	r3, [r3, #0]
    1180:	627b      	str	r3, [r7, #36]	; 0x24
    1182:	687b      	ldr	r3, [r7, #4]
    1184:	685b      	ldr	r3, [r3, #4]
    1186:	623b      	str	r3, [r7, #32]
    1188:	687b      	ldr	r3, [r7, #4]
    118a:	689b      	ldr	r3, [r3, #8]
    118c:	61fb      	str	r3, [r7, #28]
    118e:	687b      	ldr	r3, [r7, #4]
    1190:	68db      	ldr	r3, [r3, #12]
    1192:	61bb      	str	r3, [r7, #24]
    1194:	687b      	ldr	r3, [r7, #4]
    1196:	691b      	ldr	r3, [r3, #16]
    1198:	617b      	str	r3, [r7, #20]
    119a:	687b      	ldr	r3, [r7, #4]
    119c:	695b      	ldr	r3, [r3, #20]
    119e:	613b      	str	r3, [r7, #16]
    11a0:	687b      	ldr	r3, [r7, #4]
    11a2:	699b      	ldr	r3, [r3, #24]
    11a4:	60fb      	str	r3, [r7, #12]
    11a6:	687b      	ldr	r3, [r7, #4]
    11a8:	69db      	ldr	r3, [r3, #28]
    11aa:	60bb      	str	r3, [r7, #8]
    11ac:	e7fe      	b.n	11ac <prvGetRegistersFromStack+0x38>
    11ae:	bf00      	nop

000011b0 <HardFault_Handler>:
    11b0:	f01e 0f04 	tst.w	lr, #4
    11b4:	bf0c      	ite	eq
    11b6:	f3ef 8008 	mrseq	r0, MSP
    11ba:	f3ef 8009 	mrsne	r0, PSP
    11be:	6981      	ldr	r1, [r0, #24]
    11c0:	4a00      	ldr	r2, [pc, #0]	; (11c4 <handler2_address_const>)
    11c2:	4710      	bx	r2

000011c4 <handler2_address_const>:
    11c4:	00001175 	.word	0x00001175

000011c8 <SlipSerialProcessPacket>:
    11c8:	b580      	push	{r7, lr}
    11ca:	b082      	sub	sp, #8
    11cc:	af00      	add	r7, sp, #0
    11ce:	6078      	str	r0, [r7, #4]
    11d0:	6039      	str	r1, [r7, #0]
    11d2:	687b      	ldr	r3, [r7, #4]
    11d4:	781b      	ldrb	r3, [r3, #0]
    11d6:	2b15      	cmp	r3, #21
    11d8:	d036      	beq.n	1248 <SlipSerialProcessPacket+0x80>
    11da:	2b17      	cmp	r3, #23
    11dc:	d044      	beq.n	1268 <SlipSerialProcessPacket+0xa0>
    11de:	2b14      	cmp	r3, #20
    11e0:	d15d      	bne.n	129e <SlipSerialProcessPacket+0xd6>
    11e2:	f04f 0005 	mov.w	r0, #5
    11e6:	f002 ffe1 	bl	41ac <ClearError>
    11ea:	687b      	ldr	r3, [r7, #4]
    11ec:	f103 0301 	add.w	r3, r3, #1
    11f0:	781b      	ldrb	r3, [r3, #0]
    11f2:	461a      	mov	r2, r3
    11f4:	687b      	ldr	r3, [r7, #4]
    11f6:	f103 0302 	add.w	r3, r3, #2
    11fa:	781b      	ldrb	r3, [r3, #0]
    11fc:	ea4f 2303 	mov.w	r3, r3, lsl #8
    1200:	b29b      	uxth	r3, r3
    1202:	4313      	orrs	r3, r2
    1204:	b29a      	uxth	r2, r3
    1206:	f642 1320 	movw	r3, #10528	; 0x2920
    120a:	f2c2 0300 	movt	r3, #8192	; 0x2000
    120e:	801a      	strh	r2, [r3, #0]
    1210:	687b      	ldr	r3, [r7, #4]
    1212:	f103 0303 	add.w	r3, r3, #3
    1216:	781b      	ldrb	r3, [r3, #0]
    1218:	461a      	mov	r2, r3
    121a:	687b      	ldr	r3, [r7, #4]
    121c:	f103 0304 	add.w	r3, r3, #4
    1220:	781b      	ldrb	r3, [r3, #0]
    1222:	ea4f 2303 	mov.w	r3, r3, lsl #8
    1226:	b29b      	uxth	r3, r3
    1228:	4313      	orrs	r3, r2
    122a:	b29a      	uxth	r2, r3
    122c:	f642 1320 	movw	r3, #10528	; 0x2920
    1230:	f2c2 0300 	movt	r3, #8192	; 0x2000
    1234:	861a      	strh	r2, [r3, #48]	; 0x30
    1236:	f240 0300 	movw	r3, #0
    123a:	f2c2 0300 	movt	r3, #8192	; 0x2000
    123e:	781b      	ldrb	r3, [r3, #0]
    1240:	4618      	mov	r0, r3
    1242:	f7ff fbed 	bl	a20 <MotorControlSetState>
    1246:	e02a      	b.n	129e <SlipSerialProcessPacket+0xd6>
    1248:	687b      	ldr	r3, [r7, #4]
    124a:	785a      	ldrb	r2, [r3, #1]
    124c:	f240 0300 	movw	r3, #0
    1250:	f2c2 0300 	movt	r3, #8192	; 0x2000
    1254:	701a      	strb	r2, [r3, #0]
    1256:	f240 0300 	movw	r3, #0
    125a:	f2c2 0300 	movt	r3, #8192	; 0x2000
    125e:	781b      	ldrb	r3, [r3, #0]
    1260:	4618      	mov	r0, r3
    1262:	f7ff fbdd 	bl	a20 <MotorControlSetState>
    1266:	e01a      	b.n	129e <SlipSerialProcessPacket+0xd6>
    1268:	687b      	ldr	r3, [r7, #4]
    126a:	f103 0301 	add.w	r3, r3, #1
    126e:	4a0e      	ldr	r2, [pc, #56]	; (12a8 <SlipSerialProcessPacket+0xe0>)
    1270:	4611      	mov	r1, r2
    1272:	461a      	mov	r2, r3
    1274:	f04f 0308 	mov.w	r3, #8
    1278:	4608      	mov	r0, r1
    127a:	4611      	mov	r1, r2
    127c:	461a      	mov	r2, r3
    127e:	f005 fa63 	bl	6748 <memcpy>
    1282:	687b      	ldr	r3, [r7, #4]
    1284:	f103 0301 	add.w	r3, r3, #1
    1288:	4a08      	ldr	r2, [pc, #32]	; (12ac <SlipSerialProcessPacket+0xe4>)
    128a:	4611      	mov	r1, r2
    128c:	461a      	mov	r2, r3
    128e:	f04f 0308 	mov.w	r3, #8
    1292:	4608      	mov	r0, r1
    1294:	4611      	mov	r1, r2
    1296:	461a      	mov	r2, r3
    1298:	f005 fa56 	bl	6748 <memcpy>
    129c:	bf00      	nop
    129e:	f107 0708 	add.w	r7, r7, #8
    12a2:	46bd      	mov	sp, r7
    12a4:	bd80      	pop	{r7, pc}
    12a6:	bf00      	nop
    12a8:	20002934 	.word	0x20002934
    12ac:	20002964 	.word	0x20002964

000012b0 <SlipSerialReceiveTimeout>:
    12b0:	b580      	push	{r7, lr}
    12b2:	af00      	add	r7, sp, #0
    12b4:	f04f 0000 	mov.w	r0, #0
    12b8:	f7ff fbb2 	bl	a20 <MotorControlSetState>
    12bc:	f04f 0005 	mov.w	r0, #5
    12c0:	f002 ff4c 	bl	415c <SetError>
    12c4:	bd80      	pop	{r7, pc}
    12c6:	bf00      	nop

000012c8 <ControlTask_task>:
    12c8:	b580      	push	{r7, lr}
    12ca:	b082      	sub	sp, #8
    12cc:	af00      	add	r7, sp, #0
    12ce:	6078      	str	r0, [r7, #4]
    12d0:	f44f 60fa 	mov.w	r0, #2000	; 0x7d0
    12d4:	f001 fe90 	bl	2ff8 <vTaskDelay>
    12d8:	e7fa      	b.n	12d0 <ControlTask_task+0x8>
    12da:	bf00      	nop

000012dc <ControlTaskInit>:
    12dc:	b580      	push	{r7, lr}
    12de:	b086      	sub	sp, #24
    12e0:	af04      	add	r7, sp, #16
    12e2:	6078      	str	r0, [r7, #4]
    12e4:	687b      	ldr	r3, [r7, #4]
    12e6:	9300      	str	r3, [sp, #0]
    12e8:	f04f 0300 	mov.w	r3, #0
    12ec:	9301      	str	r3, [sp, #4]
    12ee:	f04f 0300 	mov.w	r3, #0
    12f2:	9302      	str	r3, [sp, #8]
    12f4:	f04f 0300 	mov.w	r3, #0
    12f8:	9303      	str	r3, [sp, #12]
    12fa:	f241 20c9 	movw	r0, #4809	; 0x12c9
    12fe:	f2c0 0000 	movt	r0, #0
    1302:	f646 01cc 	movw	r1, #26828	; 0x68cc
    1306:	f2c0 0100 	movt	r1, #0
    130a:	f44f 7280 	mov.w	r2, #256	; 0x100
    130e:	f04f 0300 	mov.w	r3, #0
    1312:	f001 fd7d 	bl	2e10 <xTaskGenericCreate>
    1316:	4603      	mov	r3, r0
    1318:	4618      	mov	r0, r3
    131a:	f107 0708 	add.w	r7, r7, #8
    131e:	46bd      	mov	sp, r7
    1320:	bd80      	pop	{r7, pc}
    1322:	bf00      	nop

00001324 <main>:
    1324:	b580      	push	{r7, lr}
    1326:	b084      	sub	sp, #16
    1328:	af04      	add	r7, sp, #16
    132a:	f7ff ff09 	bl	1140 <SystemInit>
    132e:	f04f 0001 	mov.w	r0, #1
    1332:	f002 fe7b 	bl	402c <StatusLEDInit>
    1336:	f04f 0002 	mov.w	r0, #2
    133a:	f44f 4161 	mov.w	r1, #57600	; 0xe100
    133e:	f04f 02c8 	mov.w	r2, #200	; 0xc8
    1342:	f000 f833 	bl	13ac <SlipSerialInit>
    1346:	f04f 0004 	mov.w	r0, #4
    134a:	f7ff f965 	bl	618 <MotorControlInit>
    134e:	f04f 0003 	mov.w	r0, #3
    1352:	f003 f9bd 	bl	46d0 <AccelerometrInit>
    1356:	f04f 0002 	mov.w	r0, #2
    135a:	f7ff ffbf 	bl	12dc <ControlTaskInit>
    135e:	f04f 0301 	mov.w	r3, #1
    1362:	9300      	str	r3, [sp, #0]
    1364:	f04f 0300 	mov.w	r3, #0
    1368:	9301      	str	r3, [sp, #4]
    136a:	f04f 0300 	mov.w	r3, #0
    136e:	9302      	str	r3, [sp, #8]
    1370:	f04f 0300 	mov.w	r3, #0
    1374:	9303      	str	r3, [sp, #12]
    1376:	f642 1065 	movw	r0, #10597	; 0x2965
    137a:	f2c0 0000 	movt	r0, #0
    137e:	f646 01d4 	movw	r1, #26836	; 0x68d4
    1382:	f2c0 0100 	movt	r1, #0
    1386:	f44f 7280 	mov.w	r2, #256	; 0x100
    138a:	f04f 0300 	mov.w	r3, #0
    138e:	f001 fd3f 	bl	2e10 <xTaskGenericCreate>
    1392:	f001 fe5f 	bl	3054 <vTaskStartScheduler>
    1396:	f44f 40a0 	mov.w	r0, #20480	; 0x5000
    139a:	f2c4 0002 	movt	r0, #16386	; 0x4002
    139e:	f04f 0104 	mov.w	r1, #4
    13a2:	f04f 02fb 	mov.w	r2, #251	; 0xfb
    13a6:	f001 fc81 	bl	2cac <GPIOPinWrite>
    13aa:	e7fe      	b.n	13aa <main+0x86>

000013ac <SlipSerialInit>:
    13ac:	b580      	push	{r7, lr}
    13ae:	b08a      	sub	sp, #40	; 0x28
    13b0:	af04      	add	r7, sp, #16
    13b2:	60f8      	str	r0, [r7, #12]
    13b4:	60b9      	str	r1, [r7, #8]
    13b6:	607a      	str	r2, [r7, #4]
    13b8:	f04f 0008 	mov.w	r0, #8
    13bc:	f2c2 0000 	movt	r0, #8192	; 0x2000
    13c0:	f000 fc72 	bl	1ca8 <SysCtlPeripheralEnable>
    13c4:	f04f 0002 	mov.w	r0, #2
    13c8:	f2c1 0000 	movt	r0, #4096	; 0x1000
    13cc:	f000 fc6c 	bl	1ca8 <SysCtlPeripheralEnable>
    13d0:	f44f 40e0 	mov.w	r0, #28672	; 0x7000
    13d4:	f2c4 0000 	movt	r0, #16384	; 0x4000
    13d8:	f04f 010c 	mov.w	r1, #12
    13dc:	f001 fcfe 	bl	2ddc <GPIOPinTypeUART>
    13e0:	f000 fdcc 	bl	1f7c <SysCtlClockGet>
    13e4:	4603      	mov	r3, r0
    13e6:	f44f 4050 	mov.w	r0, #53248	; 0xd000
    13ea:	f2c4 0000 	movt	r0, #16384	; 0x4000
    13ee:	4619      	mov	r1, r3
    13f0:	f44f 4261 	mov.w	r2, #57600	; 0xe100
    13f4:	f04f 0360 	mov.w	r3, #96	; 0x60
    13f8:	f000 fb4e 	bl	1a98 <UARTConfigSetExpClk>
    13fc:	f44f 4050 	mov.w	r0, #53248	; 0xd000
    1400:	f2c4 0000 	movt	r0, #16384	; 0x4000
    1404:	f04f 0110 	mov.w	r1, #16
    1408:	f000 fc2a 	bl	1c60 <UARTIntEnable>
    140c:	f04f 0016 	mov.w	r0, #22
    1410:	f04f 01c0 	mov.w	r1, #192	; 0xc0
    1414:	f002 fc00 	bl	3c18 <IntPrioritySet>
    1418:	f04f 0016 	mov.w	r0, #22
    141c:	f002 fc36 	bl	3c8c <IntEnable>
    1420:	f04f 0020 	mov.w	r0, #32
    1424:	f04f 0101 	mov.w	r1, #1
    1428:	f04f 0200 	mov.w	r2, #0
    142c:	f003 fbd4 	bl	4bd8 <xQueueGenericCreate>
    1430:	4602      	mov	r2, r0
    1432:	f240 031c 	movw	r3, #28
    1436:	f2c2 0300 	movt	r3, #8192	; 0x2000
    143a:	601a      	str	r2, [r3, #0]
    143c:	f44f 4050 	mov.w	r0, #53248	; 0xd000
    1440:	f2c4 0000 	movt	r0, #16384	; 0x4000
    1444:	f000 fb7c 	bl	1b40 <UARTEnable>
    1448:	f04f 0001 	mov.w	r0, #1
    144c:	f003 fc08 	bl	4c60 <xQueueCreateMutex>
    1450:	4602      	mov	r2, r0
    1452:	f642 23d8 	movw	r3, #10968	; 0x2ad8
    1456:	f2c2 0300 	movt	r3, #8192	; 0x2000
    145a:	601a      	str	r2, [r3, #0]
    145c:	f04f 0302 	mov.w	r3, #2
    1460:	9300      	str	r3, [sp, #0]
    1462:	f04f 0300 	mov.w	r3, #0
    1466:	9301      	str	r3, [sp, #4]
    1468:	f04f 0300 	mov.w	r3, #0
    146c:	9302      	str	r3, [sp, #8]
    146e:	f04f 0300 	mov.w	r3, #0
    1472:	9303      	str	r3, [sp, #12]
    1474:	f241 6095 	movw	r0, #5781	; 0x1695
    1478:	f2c0 0000 	movt	r0, #0
    147c:	f646 01d8 	movw	r1, #26840	; 0x68d8
    1480:	f2c0 0100 	movt	r1, #0
    1484:	f44f 7280 	mov.w	r2, #256	; 0x100
    1488:	f04f 0300 	mov.w	r3, #0
    148c:	f001 fcc0 	bl	2e10 <xTaskGenericCreate>
    1490:	4603      	mov	r3, r0
    1492:	617b      	str	r3, [r7, #20]
    1494:	f642 23d8 	movw	r3, #10968	; 0x2ad8
    1498:	f2c2 0300 	movt	r3, #8192	; 0x2000
    149c:	681b      	ldr	r3, [r3, #0]
    149e:	2b00      	cmp	r3, #0
    14a0:	d001      	beq.n	14a6 <SlipSerialInit+0xfa>
    14a2:	697b      	ldr	r3, [r7, #20]
    14a4:	e001      	b.n	14aa <SlipSerialInit+0xfe>
    14a6:	f04f 0300 	mov.w	r3, #0
    14aa:	4618      	mov	r0, r3
    14ac:	f107 0718 	add.w	r7, r7, #24
    14b0:	46bd      	mov	sp, r7
    14b2:	bd80      	pop	{r7, pc}

000014b4 <SlipSend>:
    14b4:	b580      	push	{r7, lr}
    14b6:	b086      	sub	sp, #24
    14b8:	af00      	add	r7, sp, #0
    14ba:	4603      	mov	r3, r0
    14bc:	60b9      	str	r1, [r7, #8]
    14be:	607a      	str	r2, [r7, #4]
    14c0:	73fb      	strb	r3, [r7, #15]
    14c2:	687b      	ldr	r3, [r7, #4]
    14c4:	617b      	str	r3, [r7, #20]
    14c6:	f642 23d8 	movw	r3, #10968	; 0x2ad8
    14ca:	f2c2 0300 	movt	r3, #8192	; 0x2000
    14ce:	681b      	ldr	r3, [r3, #0]
    14d0:	4618      	mov	r0, r3
    14d2:	f04f 0100 	mov.w	r1, #0
    14d6:	f04f 0264 	mov.w	r2, #100	; 0x64
    14da:	f04f 0300 	mov.w	r3, #0
    14de:	f003 fd19 	bl	4f14 <xQueueGenericReceive>
    14e2:	4603      	mov	r3, r0
    14e4:	2b01      	cmp	r3, #1
    14e6:	d002      	beq.n	14ee <SlipSend+0x3a>
    14e8:	f04f 33ff 	mov.w	r3, #4294967295
    14ec:	e092      	b.n	1614 <SlipSend+0x160>
    14ee:	f44f 4050 	mov.w	r0, #53248	; 0xd000
    14f2:	f2c4 0000 	movt	r0, #16384	; 0x4000
    14f6:	f04f 01c0 	mov.w	r1, #192	; 0xc0
    14fa:	f000 fb99 	bl	1c30 <UARTCharPut>
    14fe:	7bfb      	ldrb	r3, [r7, #15]
    1500:	2bc0      	cmp	r3, #192	; 0xc0
    1502:	d002      	beq.n	150a <SlipSend+0x56>
    1504:	2bdb      	cmp	r3, #219	; 0xdb
    1506:	d011      	beq.n	152c <SlipSend+0x78>
    1508:	e021      	b.n	154e <SlipSend+0x9a>
    150a:	f44f 4050 	mov.w	r0, #53248	; 0xd000
    150e:	f2c4 0000 	movt	r0, #16384	; 0x4000
    1512:	f04f 01db 	mov.w	r1, #219	; 0xdb
    1516:	f000 fb8b 	bl	1c30 <UARTCharPut>
    151a:	f44f 4050 	mov.w	r0, #53248	; 0xd000
    151e:	f2c4 0000 	movt	r0, #16384	; 0x4000
    1522:	f04f 01dc 	mov.w	r1, #220	; 0xdc
    1526:	f000 fb83 	bl	1c30 <UARTCharPut>
    152a:	e019      	b.n	1560 <SlipSend+0xac>
    152c:	f44f 4050 	mov.w	r0, #53248	; 0xd000
    1530:	f2c4 0000 	movt	r0, #16384	; 0x4000
    1534:	f04f 01db 	mov.w	r1, #219	; 0xdb
    1538:	f000 fb7a 	bl	1c30 <UARTCharPut>
    153c:	f44f 4050 	mov.w	r0, #53248	; 0xd000
    1540:	f2c4 0000 	movt	r0, #16384	; 0x4000
    1544:	f04f 01dd 	mov.w	r1, #221	; 0xdd
    1548:	f000 fb72 	bl	1c30 <UARTCharPut>
    154c:	e008      	b.n	1560 <SlipSend+0xac>
    154e:	7bfb      	ldrb	r3, [r7, #15]
    1550:	f44f 4050 	mov.w	r0, #53248	; 0xd000
    1554:	f2c4 0000 	movt	r0, #16384	; 0x4000
    1558:	4619      	mov	r1, r3
    155a:	f000 fb69 	bl	1c30 <UARTCharPut>
    155e:	e036      	b.n	15ce <SlipSend+0x11a>
    1560:	e035      	b.n	15ce <SlipSend+0x11a>
    1562:	68bb      	ldr	r3, [r7, #8]
    1564:	781b      	ldrb	r3, [r3, #0]
    1566:	2bc0      	cmp	r3, #192	; 0xc0
    1568:	d002      	beq.n	1570 <SlipSend+0xbc>
    156a:	2bdb      	cmp	r3, #219	; 0xdb
    156c:	d011      	beq.n	1592 <SlipSend+0xde>
    156e:	e021      	b.n	15b4 <SlipSend+0x100>
    1570:	f44f 4050 	mov.w	r0, #53248	; 0xd000
    1574:	f2c4 0000 	movt	r0, #16384	; 0x4000
    1578:	f04f 01db 	mov.w	r1, #219	; 0xdb
    157c:	f000 fb58 	bl	1c30 <UARTCharPut>
    1580:	f44f 4050 	mov.w	r0, #53248	; 0xd000
    1584:	f2c4 0000 	movt	r0, #16384	; 0x4000
    1588:	f04f 01dc 	mov.w	r1, #220	; 0xdc
    158c:	f000 fb50 	bl	1c30 <UARTCharPut>
    1590:	e019      	b.n	15c6 <SlipSend+0x112>
    1592:	f44f 4050 	mov.w	r0, #53248	; 0xd000
    1596:	f2c4 0000 	movt	r0, #16384	; 0x4000
    159a:	f04f 01db 	mov.w	r1, #219	; 0xdb
    159e:	f000 fb47 	bl	1c30 <UARTCharPut>
    15a2:	f44f 4050 	mov.w	r0, #53248	; 0xd000
    15a6:	f2c4 0000 	movt	r0, #16384	; 0x4000
    15aa:	f04f 01dd 	mov.w	r1, #221	; 0xdd
    15ae:	f000 fb3f 	bl	1c30 <UARTCharPut>
    15b2:	e008      	b.n	15c6 <SlipSend+0x112>
    15b4:	68bb      	ldr	r3, [r7, #8]
    15b6:	781b      	ldrb	r3, [r3, #0]
    15b8:	f44f 4050 	mov.w	r0, #53248	; 0xd000
    15bc:	f2c4 0000 	movt	r0, #16384	; 0x4000
    15c0:	4619      	mov	r1, r3
    15c2:	f000 fb35 	bl	1c30 <UARTCharPut>
    15c6:	68bb      	ldr	r3, [r7, #8]
    15c8:	f103 0301 	add.w	r3, r3, #1
    15cc:	60bb      	str	r3, [r7, #8]
    15ce:	687b      	ldr	r3, [r7, #4]
    15d0:	2b00      	cmp	r3, #0
    15d2:	bfd4      	ite	le
    15d4:	2300      	movle	r3, #0
    15d6:	2301      	movgt	r3, #1
    15d8:	b2db      	uxtb	r3, r3
    15da:	687a      	ldr	r2, [r7, #4]
    15dc:	f102 32ff 	add.w	r2, r2, #4294967295
    15e0:	607a      	str	r2, [r7, #4]
    15e2:	2b00      	cmp	r3, #0
    15e4:	d1bd      	bne.n	1562 <SlipSend+0xae>
    15e6:	f44f 4050 	mov.w	r0, #53248	; 0xd000
    15ea:	f2c4 0000 	movt	r0, #16384	; 0x4000
    15ee:	f04f 01c0 	mov.w	r1, #192	; 0xc0
    15f2:	f000 fb1d 	bl	1c30 <UARTCharPut>
    15f6:	f642 23d8 	movw	r3, #10968	; 0x2ad8
    15fa:	f2c2 0300 	movt	r3, #8192	; 0x2000
    15fe:	681b      	ldr	r3, [r3, #0]
    1600:	4618      	mov	r0, r3
    1602:	f04f 0100 	mov.w	r1, #0
    1606:	f04f 0200 	mov.w	r2, #0
    160a:	f04f 0300 	mov.w	r3, #0
    160e:	f003 fb7b 	bl	4d08 <xQueueGenericSend>
    1612:	697b      	ldr	r3, [r7, #20]
    1614:	4618      	mov	r0, r3
    1616:	f107 0718 	add.w	r7, r7, #24
    161a:	46bd      	mov	sp, r7
    161c:	bd80      	pop	{r7, pc}
    161e:	bf00      	nop

00001620 <UART1_IRQHandler>:
    1620:	b580      	push	{r7, lr}
    1622:	b082      	sub	sp, #8
    1624:	af00      	add	r7, sp, #0
    1626:	f04f 0300 	mov.w	r3, #0
    162a:	607b      	str	r3, [r7, #4]
    162c:	e018      	b.n	1660 <UART1_IRQHandler+0x40>
    162e:	f44f 4050 	mov.w	r0, #53248	; 0xd000
    1632:	f2c4 0000 	movt	r0, #16384	; 0x4000
    1636:	f000 fae3 	bl	1c00 <UARTCharGetNonBlocking>
    163a:	4603      	mov	r3, r0
    163c:	b2db      	uxtb	r3, r3
    163e:	70fb      	strb	r3, [r7, #3]
    1640:	f240 031c 	movw	r3, #28
    1644:	f2c2 0300 	movt	r3, #8192	; 0x2000
    1648:	6819      	ldr	r1, [r3, #0]
    164a:	f107 0203 	add.w	r2, r7, #3
    164e:	f107 0304 	add.w	r3, r7, #4
    1652:	4608      	mov	r0, r1
    1654:	4611      	mov	r1, r2
    1656:	461a      	mov	r2, r3
    1658:	f04f 0300 	mov.w	r3, #0
    165c:	f003 fbfc 	bl	4e58 <xQueueGenericSendFromISR>
    1660:	f44f 4050 	mov.w	r0, #53248	; 0xd000
    1664:	f2c4 0000 	movt	r0, #16384	; 0x4000
    1668:	f000 fab4 	bl	1bd4 <UARTCharsAvail>
    166c:	4603      	mov	r3, r0
    166e:	2b00      	cmp	r3, #0
    1670:	d1dd      	bne.n	162e <UART1_IRQHandler+0xe>
    1672:	687b      	ldr	r3, [r7, #4]
    1674:	2b00      	cmp	r3, #0
    1676:	d001      	beq.n	167c <UART1_IRQHandler+0x5c>
    1678:	f003 ff04 	bl	5484 <vPortYieldFromISR>
    167c:	f44f 4050 	mov.w	r0, #53248	; 0xd000
    1680:	f2c4 0000 	movt	r0, #16384	; 0x4000
    1684:	f04f 0110 	mov.w	r1, #16
    1688:	f000 fafe 	bl	1c88 <UARTIntClear>
    168c:	f107 0708 	add.w	r7, r7, #8
    1690:	46bd      	mov	sp, r7
    1692:	bd80      	pop	{r7, pc}

00001694 <SlipSerial_task>:
    1694:	b580      	push	{r7, lr}
    1696:	b084      	sub	sp, #16
    1698:	af00      	add	r7, sp, #0
    169a:	6078      	str	r0, [r7, #4]
    169c:	f04f 0064 	mov.w	r0, #100	; 0x64
    16a0:	f001 fcaa 	bl	2ff8 <vTaskDelay>
    16a4:	f240 031c 	movw	r3, #28
    16a8:	f2c2 0300 	movt	r3, #8192	; 0x2000
    16ac:	681a      	ldr	r2, [r3, #0]
    16ae:	f107 030f 	add.w	r3, r7, #15
    16b2:	4610      	mov	r0, r2
    16b4:	4619      	mov	r1, r3
    16b6:	f04f 0264 	mov.w	r2, #100	; 0x64
    16ba:	f04f 0300 	mov.w	r3, #0
    16be:	f003 fc29 	bl	4f14 <xQueueGenericReceive>
    16c2:	4603      	mov	r3, r0
    16c4:	2b01      	cmp	r3, #1
    16c6:	f040 8116 	bne.w	18f6 <SlipSerial_task+0x262>
    16ca:	7bfb      	ldrb	r3, [r7, #15]
    16cc:	f1a3 03c0 	sub.w	r3, r3, #192	; 0xc0
    16d0:	2b1d      	cmp	r3, #29
    16d2:	f200 80f0 	bhi.w	18b6 <SlipSerial_task+0x222>
    16d6:	a201      	add	r2, pc, #4	; (adr r2, 16dc <SlipSerial_task+0x48>)
    16d8:	f852 f023 	ldr.w	pc, [r2, r3, lsl #2]
    16dc:	00001755 	.word	0x00001755
    16e0:	000018b7 	.word	0x000018b7
    16e4:	000018b7 	.word	0x000018b7
    16e8:	000018b7 	.word	0x000018b7
    16ec:	000018b7 	.word	0x000018b7
    16f0:	000018b7 	.word	0x000018b7
    16f4:	000018b7 	.word	0x000018b7
    16f8:	000018b7 	.word	0x000018b7
    16fc:	000018b7 	.word	0x000018b7
    1700:	000018b7 	.word	0x000018b7
    1704:	000018b7 	.word	0x000018b7
    1708:	000018b7 	.word	0x000018b7
    170c:	000018b7 	.word	0x000018b7
    1710:	000018b7 	.word	0x000018b7
    1714:	000018b7 	.word	0x000018b7
    1718:	000018b7 	.word	0x000018b7
    171c:	000018b7 	.word	0x000018b7
    1720:	000018b7 	.word	0x000018b7
    1724:	000018b7 	.word	0x000018b7
    1728:	000018b7 	.word	0x000018b7
    172c:	000018b7 	.word	0x000018b7
    1730:	000018b7 	.word	0x000018b7
    1734:	000018b7 	.word	0x000018b7
    1738:	000018b7 	.word	0x000018b7
    173c:	000018b7 	.word	0x000018b7
    1740:	000018b7 	.word	0x000018b7
    1744:	000018b7 	.word	0x000018b7
    1748:	0000178b 	.word	0x0000178b
    174c:	0000179b 	.word	0x0000179b
    1750:	00001829 	.word	0x00001829
    1754:	f240 0320 	movw	r3, #32
    1758:	f2c2 0300 	movt	r3, #8192	; 0x2000
    175c:	681b      	ldr	r3, [r3, #0]
    175e:	2b00      	cmp	r3, #0
    1760:	dd0b      	ble.n	177a <SlipSerial_task+0xe6>
    1762:	f240 0320 	movw	r3, #32
    1766:	f2c2 0300 	movt	r3, #8192	; 0x2000
    176a:	681b      	ldr	r3, [r3, #0]
    176c:	f642 10ac 	movw	r0, #10668	; 0x29ac
    1770:	f2c2 0000 	movt	r0, #8192	; 0x2000
    1774:	4619      	mov	r1, r3
    1776:	f7ff fd27 	bl	11c8 <SlipSerialProcessPacket>
    177a:	f240 0320 	movw	r3, #32
    177e:	f2c2 0300 	movt	r3, #8192	; 0x2000
    1782:	f04f 0200 	mov.w	r2, #0
    1786:	601a      	str	r2, [r3, #0]
    1788:	e0b4      	b.n	18f4 <SlipSerial_task+0x260>
    178a:	f240 0324 	movw	r3, #36	; 0x24
    178e:	f2c2 0300 	movt	r3, #8192	; 0x2000
    1792:	f04f 0201 	mov.w	r2, #1
    1796:	601a      	str	r2, [r3, #0]
    1798:	e0ac      	b.n	18f4 <SlipSerial_task+0x260>
    179a:	f240 0324 	movw	r3, #36	; 0x24
    179e:	f2c2 0300 	movt	r3, #8192	; 0x2000
    17a2:	681b      	ldr	r3, [r3, #0]
    17a4:	2b01      	cmp	r3, #1
    17a6:	d123      	bne.n	17f0 <SlipSerial_task+0x15c>
    17a8:	f240 0320 	movw	r3, #32
    17ac:	f2c2 0300 	movt	r3, #8192	; 0x2000
    17b0:	681a      	ldr	r2, [r3, #0]
    17b2:	f240 132b 	movw	r3, #299	; 0x12b
    17b6:	429a      	cmp	r2, r3
    17b8:	dc12      	bgt.n	17e0 <SlipSerial_task+0x14c>
    17ba:	f240 0320 	movw	r3, #32
    17be:	f2c2 0300 	movt	r3, #8192	; 0x2000
    17c2:	681a      	ldr	r2, [r3, #0]
    17c4:	f642 13ac 	movw	r3, #10668	; 0x29ac
    17c8:	f2c2 0300 	movt	r3, #8192	; 0x2000
    17cc:	f04f 01c0 	mov.w	r1, #192	; 0xc0
    17d0:	5499      	strb	r1, [r3, r2]
    17d2:	f102 0201 	add.w	r2, r2, #1
    17d6:	f240 0320 	movw	r3, #32
    17da:	f2c2 0300 	movt	r3, #8192	; 0x2000
    17de:	601a      	str	r2, [r3, #0]
    17e0:	f240 0324 	movw	r3, #36	; 0x24
    17e4:	f2c2 0300 	movt	r3, #8192	; 0x2000
    17e8:	f04f 0200 	mov.w	r2, #0
    17ec:	601a      	str	r2, [r3, #0]
    17ee:	e07e      	b.n	18ee <SlipSerial_task+0x25a>
    17f0:	f240 0320 	movw	r3, #32
    17f4:	f2c2 0300 	movt	r3, #8192	; 0x2000
    17f8:	681a      	ldr	r2, [r3, #0]
    17fa:	f240 132b 	movw	r3, #299	; 0x12b
    17fe:	429a      	cmp	r2, r3
    1800:	dc75      	bgt.n	18ee <SlipSerial_task+0x25a>
    1802:	f240 0320 	movw	r3, #32
    1806:	f2c2 0300 	movt	r3, #8192	; 0x2000
    180a:	681a      	ldr	r2, [r3, #0]
    180c:	7bf9      	ldrb	r1, [r7, #15]
    180e:	f642 13ac 	movw	r3, #10668	; 0x29ac
    1812:	f2c2 0300 	movt	r3, #8192	; 0x2000
    1816:	5499      	strb	r1, [r3, r2]
    1818:	f102 0201 	add.w	r2, r2, #1
    181c:	f240 0320 	movw	r3, #32
    1820:	f2c2 0300 	movt	r3, #8192	; 0x2000
    1824:	601a      	str	r2, [r3, #0]
    1826:	e062      	b.n	18ee <SlipSerial_task+0x25a>
    1828:	f240 0324 	movw	r3, #36	; 0x24
    182c:	f2c2 0300 	movt	r3, #8192	; 0x2000
    1830:	681b      	ldr	r3, [r3, #0]
    1832:	2b01      	cmp	r3, #1
    1834:	d123      	bne.n	187e <SlipSerial_task+0x1ea>
    1836:	f240 0320 	movw	r3, #32
    183a:	f2c2 0300 	movt	r3, #8192	; 0x2000
    183e:	681a      	ldr	r2, [r3, #0]
    1840:	f240 132b 	movw	r3, #299	; 0x12b
    1844:	429a      	cmp	r2, r3
    1846:	dc12      	bgt.n	186e <SlipSerial_task+0x1da>
    1848:	f240 0320 	movw	r3, #32
    184c:	f2c2 0300 	movt	r3, #8192	; 0x2000
    1850:	681a      	ldr	r2, [r3, #0]
    1852:	f642 13ac 	movw	r3, #10668	; 0x29ac
    1856:	f2c2 0300 	movt	r3, #8192	; 0x2000
    185a:	f04f 01db 	mov.w	r1, #219	; 0xdb
    185e:	5499      	strb	r1, [r3, r2]
    1860:	f102 0201 	add.w	r2, r2, #1
    1864:	f240 0320 	movw	r3, #32
    1868:	f2c2 0300 	movt	r3, #8192	; 0x2000
    186c:	601a      	str	r2, [r3, #0]
    186e:	f240 0324 	movw	r3, #36	; 0x24
    1872:	f2c2 0300 	movt	r3, #8192	; 0x2000
    1876:	f04f 0200 	mov.w	r2, #0
    187a:	601a      	str	r2, [r3, #0]
    187c:	e039      	b.n	18f2 <SlipSerial_task+0x25e>
    187e:	f240 0320 	movw	r3, #32
    1882:	f2c2 0300 	movt	r3, #8192	; 0x2000
    1886:	681a      	ldr	r2, [r3, #0]
    1888:	f240 132b 	movw	r3, #299	; 0x12b
    188c:	429a      	cmp	r2, r3
    188e:	dc30      	bgt.n	18f2 <SlipSerial_task+0x25e>
    1890:	f240 0320 	movw	r3, #32
    1894:	f2c2 0300 	movt	r3, #8192	; 0x2000
    1898:	681a      	ldr	r2, [r3, #0]
    189a:	7bf9      	ldrb	r1, [r7, #15]
    189c:	f642 13ac 	movw	r3, #10668	; 0x29ac
    18a0:	f2c2 0300 	movt	r3, #8192	; 0x2000
    18a4:	5499      	strb	r1, [r3, r2]
    18a6:	f102 0201 	add.w	r2, r2, #1
    18aa:	f240 0320 	movw	r3, #32
    18ae:	f2c2 0300 	movt	r3, #8192	; 0x2000
    18b2:	601a      	str	r2, [r3, #0]
    18b4:	e01d      	b.n	18f2 <SlipSerial_task+0x25e>
    18b6:	f240 0320 	movw	r3, #32
    18ba:	f2c2 0300 	movt	r3, #8192	; 0x2000
    18be:	681a      	ldr	r2, [r3, #0]
    18c0:	f240 132b 	movw	r3, #299	; 0x12b
    18c4:	429a      	cmp	r2, r3
    18c6:	dc19      	bgt.n	18fc <SlipSerial_task+0x268>
    18c8:	f240 0320 	movw	r3, #32
    18cc:	f2c2 0300 	movt	r3, #8192	; 0x2000
    18d0:	681a      	ldr	r2, [r3, #0]
    18d2:	7bf9      	ldrb	r1, [r7, #15]
    18d4:	f642 13ac 	movw	r3, #10668	; 0x29ac
    18d8:	f2c2 0300 	movt	r3, #8192	; 0x2000
    18dc:	5499      	strb	r1, [r3, r2]
    18de:	f102 0201 	add.w	r2, r2, #1
    18e2:	f240 0320 	movw	r3, #32
    18e6:	f2c2 0300 	movt	r3, #8192	; 0x2000
    18ea:	601a      	str	r2, [r3, #0]
    18ec:	e006      	b.n	18fc <SlipSerial_task+0x268>
    18ee:	bf00      	nop
    18f0:	e000      	b.n	18f4 <SlipSerial_task+0x260>
    18f2:	bf00      	nop
    18f4:	e6d6      	b.n	16a4 <SlipSerial_task+0x10>
    18f6:	f7ff fcdb 	bl	12b0 <SlipSerialReceiveTimeout>
    18fa:	e6d3      	b.n	16a4 <SlipSerial_task+0x10>
    18fc:	bf00      	nop
    18fe:	e6d1      	b.n	16a4 <SlipSerial_task+0x10>

00001900 <PWMGenConfigure>:
    1900:	b480      	push	{r7}
    1902:	b085      	sub	sp, #20
    1904:	af00      	add	r7, sp, #0
    1906:	60f8      	str	r0, [r7, #12]
    1908:	60b9      	str	r1, [r7, #8]
    190a:	607a      	str	r2, [r7, #4]
    190c:	68ba      	ldr	r2, [r7, #8]
    190e:	68fb      	ldr	r3, [r7, #12]
    1910:	18d3      	adds	r3, r2, r3
    1912:	60bb      	str	r3, [r7, #8]
    1914:	68ba      	ldr	r2, [r7, #8]
    1916:	68bb      	ldr	r3, [r7, #8]
    1918:	6819      	ldr	r1, [r3, #0]
    191a:	f04f 0301 	mov.w	r3, #1
    191e:	f6cf 73f8 	movt	r3, #65528	; 0xfff8
    1922:	400b      	ands	r3, r1
    1924:	6879      	ldr	r1, [r7, #4]
    1926:	430b      	orrs	r3, r1
    1928:	6013      	str	r3, [r2, #0]
    192a:	687b      	ldr	r3, [r7, #4]
    192c:	f003 0302 	and.w	r3, r3, #2
    1930:	2b00      	cmp	r3, #0
    1932:	d00c      	beq.n	194e <PWMGenConfigure+0x4e>
    1934:	68bb      	ldr	r3, [r7, #8]
    1936:	f103 0320 	add.w	r3, r3, #32
    193a:	f04f 02b0 	mov.w	r2, #176	; 0xb0
    193e:	601a      	str	r2, [r3, #0]
    1940:	68bb      	ldr	r3, [r7, #8]
    1942:	f103 0324 	add.w	r3, r3, #36	; 0x24
    1946:	f44f 6230 	mov.w	r2, #2816	; 0xb00
    194a:	601a      	str	r2, [r3, #0]
    194c:	e00b      	b.n	1966 <PWMGenConfigure+0x66>
    194e:	68bb      	ldr	r3, [r7, #8]
    1950:	f103 0320 	add.w	r3, r3, #32
    1954:	f04f 028c 	mov.w	r2, #140	; 0x8c
    1958:	601a      	str	r2, [r3, #0]
    195a:	68bb      	ldr	r3, [r7, #8]
    195c:	f103 0324 	add.w	r3, r3, #36	; 0x24
    1960:	f640 020c 	movw	r2, #2060	; 0x80c
    1964:	601a      	str	r2, [r3, #0]
    1966:	f107 0714 	add.w	r7, r7, #20
    196a:	46bd      	mov	sp, r7
    196c:	bc80      	pop	{r7}
    196e:	4770      	bx	lr

00001970 <PWMGenPeriodSet>:
    1970:	b480      	push	{r7}
    1972:	b085      	sub	sp, #20
    1974:	af00      	add	r7, sp, #0
    1976:	60f8      	str	r0, [r7, #12]
    1978:	60b9      	str	r1, [r7, #8]
    197a:	607a      	str	r2, [r7, #4]
    197c:	68ba      	ldr	r2, [r7, #8]
    197e:	68fb      	ldr	r3, [r7, #12]
    1980:	18d3      	adds	r3, r2, r3
    1982:	60bb      	str	r3, [r7, #8]
    1984:	68bb      	ldr	r3, [r7, #8]
    1986:	681b      	ldr	r3, [r3, #0]
    1988:	f003 0302 	and.w	r3, r3, #2
    198c:	2b00      	cmp	r3, #0
    198e:	d007      	beq.n	19a0 <PWMGenPeriodSet+0x30>
    1990:	68bb      	ldr	r3, [r7, #8]
    1992:	f103 0310 	add.w	r3, r3, #16
    1996:	687a      	ldr	r2, [r7, #4]
    1998:	ea4f 0252 	mov.w	r2, r2, lsr #1
    199c:	601a      	str	r2, [r3, #0]
    199e:	e006      	b.n	19ae <PWMGenPeriodSet+0x3e>
    19a0:	68bb      	ldr	r3, [r7, #8]
    19a2:	f103 0310 	add.w	r3, r3, #16
    19a6:	687a      	ldr	r2, [r7, #4]
    19a8:	f102 32ff 	add.w	r2, r2, #4294967295
    19ac:	601a      	str	r2, [r3, #0]
    19ae:	f107 0714 	add.w	r7, r7, #20
    19b2:	46bd      	mov	sp, r7
    19b4:	bc80      	pop	{r7}
    19b6:	4770      	bx	lr

000019b8 <PWMGenEnable>:
    19b8:	b480      	push	{r7}
    19ba:	b083      	sub	sp, #12
    19bc:	af00      	add	r7, sp, #0
    19be:	6078      	str	r0, [r7, #4]
    19c0:	6039      	str	r1, [r7, #0]
    19c2:	687a      	ldr	r2, [r7, #4]
    19c4:	683b      	ldr	r3, [r7, #0]
    19c6:	18d3      	adds	r3, r2, r3
    19c8:	6879      	ldr	r1, [r7, #4]
    19ca:	683a      	ldr	r2, [r7, #0]
    19cc:	188a      	adds	r2, r1, r2
    19ce:	6812      	ldr	r2, [r2, #0]
    19d0:	f042 0201 	orr.w	r2, r2, #1
    19d4:	601a      	str	r2, [r3, #0]
    19d6:	f107 070c 	add.w	r7, r7, #12
    19da:	46bd      	mov	sp, r7
    19dc:	bc80      	pop	{r7}
    19de:	4770      	bx	lr

000019e0 <PWMPulseWidthSet>:
    19e0:	b480      	push	{r7}
    19e2:	b087      	sub	sp, #28
    19e4:	af00      	add	r7, sp, #0
    19e6:	60f8      	str	r0, [r7, #12]
    19e8:	60b9      	str	r1, [r7, #8]
    19ea:	607a      	str	r2, [r7, #4]
    19ec:	68bb      	ldr	r3, [r7, #8]
    19ee:	f023 023f 	bic.w	r2, r3, #63	; 0x3f
    19f2:	68fb      	ldr	r3, [r7, #12]
    19f4:	18d3      	adds	r3, r2, r3
    19f6:	617b      	str	r3, [r7, #20]
    19f8:	697b      	ldr	r3, [r7, #20]
    19fa:	681b      	ldr	r3, [r3, #0]
    19fc:	f003 0302 	and.w	r3, r3, #2
    1a00:	2b00      	cmp	r3, #0
    1a02:	d003      	beq.n	1a0c <PWMPulseWidthSet+0x2c>
    1a04:	687b      	ldr	r3, [r7, #4]
    1a06:	ea4f 0353 	mov.w	r3, r3, lsr #1
    1a0a:	607b      	str	r3, [r7, #4]
    1a0c:	697b      	ldr	r3, [r7, #20]
    1a0e:	f103 0310 	add.w	r3, r3, #16
    1a12:	681b      	ldr	r3, [r3, #0]
    1a14:	613b      	str	r3, [r7, #16]
    1a16:	693a      	ldr	r2, [r7, #16]
    1a18:	687b      	ldr	r3, [r7, #4]
    1a1a:	1ad3      	subs	r3, r2, r3
    1a1c:	613b      	str	r3, [r7, #16]
    1a1e:	68bb      	ldr	r3, [r7, #8]
    1a20:	f003 0301 	and.w	r3, r3, #1
    1a24:	b2db      	uxtb	r3, r3
    1a26:	2b00      	cmp	r3, #0
    1a28:	d005      	beq.n	1a36 <PWMPulseWidthSet+0x56>
    1a2a:	697b      	ldr	r3, [r7, #20]
    1a2c:	f103 031c 	add.w	r3, r3, #28
    1a30:	693a      	ldr	r2, [r7, #16]
    1a32:	601a      	str	r2, [r3, #0]
    1a34:	e004      	b.n	1a40 <PWMPulseWidthSet+0x60>
    1a36:	697b      	ldr	r3, [r7, #20]
    1a38:	f103 0318 	add.w	r3, r3, #24
    1a3c:	693a      	ldr	r2, [r7, #16]
    1a3e:	601a      	str	r2, [r3, #0]
    1a40:	f107 071c 	add.w	r7, r7, #28
    1a44:	46bd      	mov	sp, r7
    1a46:	bc80      	pop	{r7}
    1a48:	4770      	bx	lr
    1a4a:	bf00      	nop

00001a4c <PWMOutputState>:
    1a4c:	b480      	push	{r7}
    1a4e:	b085      	sub	sp, #20
    1a50:	af00      	add	r7, sp, #0
    1a52:	60f8      	str	r0, [r7, #12]
    1a54:	60b9      	str	r1, [r7, #8]
    1a56:	4613      	mov	r3, r2
    1a58:	71fb      	strb	r3, [r7, #7]
    1a5a:	79fb      	ldrb	r3, [r7, #7]
    1a5c:	2b01      	cmp	r3, #1
    1a5e:	d10a      	bne.n	1a76 <PWMOutputState+0x2a>
    1a60:	68fb      	ldr	r3, [r7, #12]
    1a62:	f103 0308 	add.w	r3, r3, #8
    1a66:	68fa      	ldr	r2, [r7, #12]
    1a68:	f102 0208 	add.w	r2, r2, #8
    1a6c:	6811      	ldr	r1, [r2, #0]
    1a6e:	68ba      	ldr	r2, [r7, #8]
    1a70:	430a      	orrs	r2, r1
    1a72:	601a      	str	r2, [r3, #0]
    1a74:	e00b      	b.n	1a8e <PWMOutputState+0x42>
    1a76:	68fb      	ldr	r3, [r7, #12]
    1a78:	f103 0308 	add.w	r3, r3, #8
    1a7c:	68fa      	ldr	r2, [r7, #12]
    1a7e:	f102 0208 	add.w	r2, r2, #8
    1a82:	6811      	ldr	r1, [r2, #0]
    1a84:	68ba      	ldr	r2, [r7, #8]
    1a86:	ea6f 0202 	mvn.w	r2, r2
    1a8a:	400a      	ands	r2, r1
    1a8c:	601a      	str	r2, [r3, #0]
    1a8e:	f107 0714 	add.w	r7, r7, #20
    1a92:	46bd      	mov	sp, r7
    1a94:	bc80      	pop	{r7}
    1a96:	4770      	bx	lr

00001a98 <UARTConfigSetExpClk>:
    1a98:	b580      	push	{r7, lr}
    1a9a:	b086      	sub	sp, #24
    1a9c:	af00      	add	r7, sp, #0
    1a9e:	60f8      	str	r0, [r7, #12]
    1aa0:	60b9      	str	r1, [r7, #8]
    1aa2:	607a      	str	r2, [r7, #4]
    1aa4:	603b      	str	r3, [r7, #0]
    1aa6:	68f8      	ldr	r0, [r7, #12]
    1aa8:	f000 f86a 	bl	1b80 <UARTDisable>
    1aac:	687b      	ldr	r3, [r7, #4]
    1aae:	ea4f 1203 	mov.w	r2, r3, lsl #4
    1ab2:	68bb      	ldr	r3, [r7, #8]
    1ab4:	429a      	cmp	r2, r3
    1ab6:	d90e      	bls.n	1ad6 <UARTConfigSetExpClk+0x3e>
    1ab8:	68fb      	ldr	r3, [r7, #12]
    1aba:	f103 0330 	add.w	r3, r3, #48	; 0x30
    1abe:	68fa      	ldr	r2, [r7, #12]
    1ac0:	f102 0230 	add.w	r2, r2, #48	; 0x30
    1ac4:	6812      	ldr	r2, [r2, #0]
    1ac6:	f042 0220 	orr.w	r2, r2, #32
    1aca:	601a      	str	r2, [r3, #0]
    1acc:	687b      	ldr	r3, [r7, #4]
    1ace:	ea4f 0353 	mov.w	r3, r3, lsr #1
    1ad2:	607b      	str	r3, [r7, #4]
    1ad4:	e009      	b.n	1aea <UARTConfigSetExpClk+0x52>
    1ad6:	68fb      	ldr	r3, [r7, #12]
    1ad8:	f103 0330 	add.w	r3, r3, #48	; 0x30
    1adc:	68fa      	ldr	r2, [r7, #12]
    1ade:	f102 0230 	add.w	r2, r2, #48	; 0x30
    1ae2:	6812      	ldr	r2, [r2, #0]
    1ae4:	f022 0220 	bic.w	r2, r2, #32
    1ae8:	601a      	str	r2, [r3, #0]
    1aea:	68bb      	ldr	r3, [r7, #8]
    1aec:	ea4f 02c3 	mov.w	r2, r3, lsl #3
    1af0:	687b      	ldr	r3, [r7, #4]
    1af2:	fbb2 f3f3 	udiv	r3, r2, r3
    1af6:	f103 0301 	add.w	r3, r3, #1
    1afa:	ea4f 0353 	mov.w	r3, r3, lsr #1
    1afe:	617b      	str	r3, [r7, #20]
    1b00:	68fb      	ldr	r3, [r7, #12]
    1b02:	f103 0324 	add.w	r3, r3, #36	; 0x24
    1b06:	697a      	ldr	r2, [r7, #20]
    1b08:	ea4f 1292 	mov.w	r2, r2, lsr #6
    1b0c:	601a      	str	r2, [r3, #0]
    1b0e:	68fb      	ldr	r3, [r7, #12]
    1b10:	f103 0328 	add.w	r3, r3, #40	; 0x28
    1b14:	697a      	ldr	r2, [r7, #20]
    1b16:	f002 023f 	and.w	r2, r2, #63	; 0x3f
    1b1a:	601a      	str	r2, [r3, #0]
    1b1c:	68fb      	ldr	r3, [r7, #12]
    1b1e:	f103 032c 	add.w	r3, r3, #44	; 0x2c
    1b22:	683a      	ldr	r2, [r7, #0]
    1b24:	601a      	str	r2, [r3, #0]
    1b26:	68fb      	ldr	r3, [r7, #12]
    1b28:	f103 0318 	add.w	r3, r3, #24
    1b2c:	f04f 0200 	mov.w	r2, #0
    1b30:	601a      	str	r2, [r3, #0]
    1b32:	68f8      	ldr	r0, [r7, #12]
    1b34:	f000 f804 	bl	1b40 <UARTEnable>
    1b38:	f107 0718 	add.w	r7, r7, #24
    1b3c:	46bd      	mov	sp, r7
    1b3e:	bd80      	pop	{r7, pc}

00001b40 <UARTEnable>:
    1b40:	b480      	push	{r7}
    1b42:	b083      	sub	sp, #12
    1b44:	af00      	add	r7, sp, #0
    1b46:	6078      	str	r0, [r7, #4]
    1b48:	687b      	ldr	r3, [r7, #4]
    1b4a:	f103 032c 	add.w	r3, r3, #44	; 0x2c
    1b4e:	687a      	ldr	r2, [r7, #4]
    1b50:	f102 022c 	add.w	r2, r2, #44	; 0x2c
    1b54:	6812      	ldr	r2, [r2, #0]
    1b56:	f042 0210 	orr.w	r2, r2, #16
    1b5a:	601a      	str	r2, [r3, #0]
    1b5c:	687b      	ldr	r3, [r7, #4]
    1b5e:	f103 0330 	add.w	r3, r3, #48	; 0x30
    1b62:	461a      	mov	r2, r3
    1b64:	687b      	ldr	r3, [r7, #4]
    1b66:	f103 0330 	add.w	r3, r3, #48	; 0x30
    1b6a:	681b      	ldr	r3, [r3, #0]
    1b6c:	f443 7340 	orr.w	r3, r3, #768	; 0x300
    1b70:	f043 0301 	orr.w	r3, r3, #1
    1b74:	6013      	str	r3, [r2, #0]
    1b76:	f107 070c 	add.w	r7, r7, #12
    1b7a:	46bd      	mov	sp, r7
    1b7c:	bc80      	pop	{r7}
    1b7e:	4770      	bx	lr

00001b80 <UARTDisable>:
    1b80:	b480      	push	{r7}
    1b82:	b083      	sub	sp, #12
    1b84:	af00      	add	r7, sp, #0
    1b86:	6078      	str	r0, [r7, #4]
    1b88:	bf00      	nop
    1b8a:	687b      	ldr	r3, [r7, #4]
    1b8c:	f103 0318 	add.w	r3, r3, #24
    1b90:	681b      	ldr	r3, [r3, #0]
    1b92:	f003 0308 	and.w	r3, r3, #8
    1b96:	2b00      	cmp	r3, #0
    1b98:	d1f7      	bne.n	1b8a <UARTDisable+0xa>
    1b9a:	687b      	ldr	r3, [r7, #4]
    1b9c:	f103 032c 	add.w	r3, r3, #44	; 0x2c
    1ba0:	687a      	ldr	r2, [r7, #4]
    1ba2:	f102 022c 	add.w	r2, r2, #44	; 0x2c
    1ba6:	6812      	ldr	r2, [r2, #0]
    1ba8:	f022 0210 	bic.w	r2, r2, #16
    1bac:	601a      	str	r2, [r3, #0]
    1bae:	687b      	ldr	r3, [r7, #4]
    1bb0:	f103 0330 	add.w	r3, r3, #48	; 0x30
    1bb4:	461a      	mov	r2, r3
    1bb6:	687b      	ldr	r3, [r7, #4]
    1bb8:	f103 0330 	add.w	r3, r3, #48	; 0x30
    1bbc:	681b      	ldr	r3, [r3, #0]
    1bbe:	f423 7340 	bic.w	r3, r3, #768	; 0x300
    1bc2:	f023 0301 	bic.w	r3, r3, #1
    1bc6:	6013      	str	r3, [r2, #0]
    1bc8:	f107 070c 	add.w	r7, r7, #12
    1bcc:	46bd      	mov	sp, r7
    1bce:	bc80      	pop	{r7}
    1bd0:	4770      	bx	lr
    1bd2:	bf00      	nop

00001bd4 <UARTCharsAvail>:
    1bd4:	b480      	push	{r7}
    1bd6:	b083      	sub	sp, #12
    1bd8:	af00      	add	r7, sp, #0
    1bda:	6078      	str	r0, [r7, #4]
    1bdc:	687b      	ldr	r3, [r7, #4]
    1bde:	f103 0318 	add.w	r3, r3, #24
    1be2:	681b      	ldr	r3, [r3, #0]
    1be4:	f003 0310 	and.w	r3, r3, #16
    1be8:	2b00      	cmp	r3, #0
    1bea:	bf14      	ite	ne
    1bec:	2300      	movne	r3, #0
    1bee:	2301      	moveq	r3, #1
    1bf0:	b2db      	uxtb	r3, r3
    1bf2:	4618      	mov	r0, r3
    1bf4:	f107 070c 	add.w	r7, r7, #12
    1bf8:	46bd      	mov	sp, r7
    1bfa:	bc80      	pop	{r7}
    1bfc:	4770      	bx	lr
    1bfe:	bf00      	nop

00001c00 <UARTCharGetNonBlocking>:
    1c00:	b480      	push	{r7}
    1c02:	b083      	sub	sp, #12
    1c04:	af00      	add	r7, sp, #0
    1c06:	6078      	str	r0, [r7, #4]
    1c08:	687b      	ldr	r3, [r7, #4]
    1c0a:	f103 0318 	add.w	r3, r3, #24
    1c0e:	681b      	ldr	r3, [r3, #0]
    1c10:	f003 0310 	and.w	r3, r3, #16
    1c14:	2b00      	cmp	r3, #0
    1c16:	d102      	bne.n	1c1e <UARTCharGetNonBlocking+0x1e>
    1c18:	687b      	ldr	r3, [r7, #4]
    1c1a:	681b      	ldr	r3, [r3, #0]
    1c1c:	e001      	b.n	1c22 <UARTCharGetNonBlocking+0x22>
    1c1e:	f04f 33ff 	mov.w	r3, #4294967295
    1c22:	4618      	mov	r0, r3
    1c24:	f107 070c 	add.w	r7, r7, #12
    1c28:	46bd      	mov	sp, r7
    1c2a:	bc80      	pop	{r7}
    1c2c:	4770      	bx	lr
    1c2e:	bf00      	nop

00001c30 <UARTCharPut>:
    1c30:	b480      	push	{r7}
    1c32:	b083      	sub	sp, #12
    1c34:	af00      	add	r7, sp, #0
    1c36:	6078      	str	r0, [r7, #4]
    1c38:	460b      	mov	r3, r1
    1c3a:	70fb      	strb	r3, [r7, #3]
    1c3c:	bf00      	nop
    1c3e:	687b      	ldr	r3, [r7, #4]
    1c40:	f103 0318 	add.w	r3, r3, #24
    1c44:	681b      	ldr	r3, [r3, #0]
    1c46:	f003 0320 	and.w	r3, r3, #32
    1c4a:	2b00      	cmp	r3, #0
    1c4c:	d1f7      	bne.n	1c3e <UARTCharPut+0xe>
    1c4e:	687b      	ldr	r3, [r7, #4]
    1c50:	78fa      	ldrb	r2, [r7, #3]
    1c52:	601a      	str	r2, [r3, #0]
    1c54:	f107 070c 	add.w	r7, r7, #12
    1c58:	46bd      	mov	sp, r7
    1c5a:	bc80      	pop	{r7}
    1c5c:	4770      	bx	lr
    1c5e:	bf00      	nop

00001c60 <UARTIntEnable>:
    1c60:	b480      	push	{r7}
    1c62:	b083      	sub	sp, #12
    1c64:	af00      	add	r7, sp, #0
    1c66:	6078      	str	r0, [r7, #4]
    1c68:	6039      	str	r1, [r7, #0]
    1c6a:	687b      	ldr	r3, [r7, #4]
    1c6c:	f103 0338 	add.w	r3, r3, #56	; 0x38
    1c70:	687a      	ldr	r2, [r7, #4]
    1c72:	f102 0238 	add.w	r2, r2, #56	; 0x38
    1c76:	6811      	ldr	r1, [r2, #0]
    1c78:	683a      	ldr	r2, [r7, #0]
    1c7a:	430a      	orrs	r2, r1
    1c7c:	601a      	str	r2, [r3, #0]
    1c7e:	f107 070c 	add.w	r7, r7, #12
    1c82:	46bd      	mov	sp, r7
    1c84:	bc80      	pop	{r7}
    1c86:	4770      	bx	lr

00001c88 <UARTIntClear>:
    1c88:	b480      	push	{r7}
    1c8a:	b083      	sub	sp, #12
    1c8c:	af00      	add	r7, sp, #0
    1c8e:	6078      	str	r0, [r7, #4]
    1c90:	6039      	str	r1, [r7, #0]
    1c92:	687b      	ldr	r3, [r7, #4]
    1c94:	f103 0344 	add.w	r3, r3, #68	; 0x44
    1c98:	683a      	ldr	r2, [r7, #0]
    1c9a:	601a      	str	r2, [r3, #0]
    1c9c:	f107 070c 	add.w	r7, r7, #12
    1ca0:	46bd      	mov	sp, r7
    1ca2:	bc80      	pop	{r7}
    1ca4:	4770      	bx	lr
    1ca6:	bf00      	nop

00001ca8 <SysCtlPeripheralEnable>:
    1ca8:	b480      	push	{r7}
    1caa:	b083      	sub	sp, #12
    1cac:	af00      	add	r7, sp, #0
    1cae:	6078      	str	r0, [r7, #4]
    1cb0:	687b      	ldr	r3, [r7, #4]
    1cb2:	ea4f 7213 	mov.w	r2, r3, lsr #28
    1cb6:	f646 03fc 	movw	r3, #26876	; 0x68fc
    1cba:	f2c0 0300 	movt	r3, #0
    1cbe:	f853 3022 	ldr.w	r3, [r3, r2, lsl #2]
    1cc2:	461a      	mov	r2, r3
    1cc4:	687b      	ldr	r3, [r7, #4]
    1cc6:	ea4f 7113 	mov.w	r1, r3, lsr #28
    1cca:	f646 03fc 	movw	r3, #26876	; 0x68fc
    1cce:	f2c0 0300 	movt	r3, #0
    1cd2:	f853 3021 	ldr.w	r3, [r3, r1, lsl #2]
    1cd6:	6819      	ldr	r1, [r3, #0]
    1cd8:	687b      	ldr	r3, [r7, #4]
    1cda:	ea4f 4303 	mov.w	r3, r3, lsl #16
    1cde:	ea4f 4313 	mov.w	r3, r3, lsr #16
    1ce2:	6878      	ldr	r0, [r7, #4]
    1ce4:	f400 10f8 	and.w	r0, r0, #2031616	; 0x1f0000
    1ce8:	ea4f 4010 	mov.w	r0, r0, lsr #16
    1cec:	fa03 f300 	lsl.w	r3, r3, r0
    1cf0:	430b      	orrs	r3, r1
    1cf2:	6013      	str	r3, [r2, #0]
    1cf4:	f107 070c 	add.w	r7, r7, #12
    1cf8:	46bd      	mov	sp, r7
    1cfa:	bc80      	pop	{r7}
    1cfc:	4770      	bx	lr
    1cfe:	bf00      	nop

00001d00 <SysCtlDelay>:
    1d00:	3801      	subs	r0, #1
    1d02:	d1fd      	bne.n	1d00 <SysCtlDelay>
    1d04:	4770      	bx	lr
    1d06:	bf00      	nop

00001d08 <SysCtlClockSet>:
    1d08:	b580      	push	{r7, lr}
    1d0a:	b086      	sub	sp, #24
    1d0c:	af00      	add	r7, sp, #0
    1d0e:	6078      	str	r0, [r7, #4]
    1d10:	f44f 4360 	mov.w	r3, #57344	; 0xe000
    1d14:	f2c4 030f 	movt	r3, #16399	; 0x400f
    1d18:	681b      	ldr	r3, [r3, #0]
    1d1a:	f003 43e0 	and.w	r3, r3, #1879048192	; 0x70000000
    1d1e:	2b00      	cmp	r3, #0
    1d20:	d00c      	beq.n	1d3c <SysCtlClockSet+0x34>
    1d22:	f44f 4360 	mov.w	r3, #57344	; 0xe000
    1d26:	f2c4 030f 	movt	r3, #16399	; 0x400f
    1d2a:	681a      	ldr	r2, [r3, #0]
    1d2c:	f04f 0300 	mov.w	r3, #0
    1d30:	f2c7 03ff 	movt	r3, #28927	; 0x70ff
    1d34:	4013      	ands	r3, r2
    1d36:	f1b3 5f80 	cmp.w	r3, #268435456	; 0x10000000
    1d3a:	d103      	bne.n	1d44 <SysCtlClockSet+0x3c>
    1d3c:	687b      	ldr	r3, [r7, #4]
    1d3e:	2b00      	cmp	r3, #0
    1d40:	f2c0 8117 	blt.w	1f72 <SysCtlClockSet+0x26a>
    1d44:	f24e 0360 	movw	r3, #57440	; 0xe060
    1d48:	f2c4 030f 	movt	r3, #16399	; 0x400f
    1d4c:	681b      	ldr	r3, [r3, #0]
    1d4e:	613b      	str	r3, [r7, #16]
    1d50:	f24e 0370 	movw	r3, #57456	; 0xe070
    1d54:	f2c4 030f 	movt	r3, #16399	; 0x400f
    1d58:	681b      	ldr	r3, [r3, #0]
    1d5a:	60fb      	str	r3, [r7, #12]
    1d5c:	693b      	ldr	r3, [r7, #16]
    1d5e:	f443 6300 	orr.w	r3, r3, #2048	; 0x800
    1d62:	613b      	str	r3, [r7, #16]
    1d64:	693b      	ldr	r3, [r7, #16]
    1d66:	f423 0380 	bic.w	r3, r3, #4194304	; 0x400000
    1d6a:	613b      	str	r3, [r7, #16]
    1d6c:	68fb      	ldr	r3, [r7, #12]
    1d6e:	f443 6300 	orr.w	r3, r3, #2048	; 0x800
    1d72:	60fb      	str	r3, [r7, #12]
    1d74:	f24e 0360 	movw	r3, #57440	; 0xe060
    1d78:	f2c4 030f 	movt	r3, #16399	; 0x400f
    1d7c:	693a      	ldr	r2, [r7, #16]
    1d7e:	601a      	str	r2, [r3, #0]
    1d80:	f24e 0370 	movw	r3, #57456	; 0xe070
    1d84:	f2c4 030f 	movt	r3, #16399	; 0x400f
    1d88:	68fa      	ldr	r2, [r7, #12]
    1d8a:	601a      	str	r2, [r3, #0]
    1d8c:	693b      	ldr	r3, [r7, #16]
    1d8e:	f003 0302 	and.w	r3, r3, #2
    1d92:	2b00      	cmp	r3, #0
    1d94:	d004      	beq.n	1da0 <SysCtlClockSet+0x98>
    1d96:	687b      	ldr	r3, [r7, #4]
    1d98:	f003 0302 	and.w	r3, r3, #2
    1d9c:	2b00      	cmp	r3, #0
    1d9e:	d00a      	beq.n	1db6 <SysCtlClockSet+0xae>
    1da0:	693b      	ldr	r3, [r7, #16]
    1da2:	f003 0301 	and.w	r3, r3, #1
    1da6:	b2db      	uxtb	r3, r3
    1da8:	2b00      	cmp	r3, #0
    1daa:	d02e      	beq.n	1e0a <SysCtlClockSet+0x102>
    1dac:	687b      	ldr	r3, [r7, #4]
    1dae:	f003 0301 	and.w	r3, r3, #1
    1db2:	2b00      	cmp	r3, #0
    1db4:	d129      	bne.n	1e0a <SysCtlClockSet+0x102>
    1db6:	687b      	ldr	r3, [r7, #4]
    1db8:	f063 0303 	orn	r3, r3, #3
    1dbc:	693a      	ldr	r2, [r7, #16]
    1dbe:	4013      	ands	r3, r2
    1dc0:	613b      	str	r3, [r7, #16]
    1dc2:	f24e 0360 	movw	r3, #57440	; 0xe060
    1dc6:	f2c4 030f 	movt	r3, #16399	; 0x400f
    1dca:	693a      	ldr	r2, [r7, #16]
    1dcc:	601a      	str	r2, [r3, #0]
    1dce:	68fb      	ldr	r3, [r7, #12]
    1dd0:	2b00      	cmp	r3, #0
    1dd2:	da09      	bge.n	1de8 <SysCtlClockSet+0xe0>
    1dd4:	68fb      	ldr	r3, [r7, #12]
    1dd6:	f003 0370 	and.w	r3, r3, #112	; 0x70
    1dda:	2b30      	cmp	r3, #48	; 0x30
    1ddc:	d00c      	beq.n	1df8 <SysCtlClockSet+0xf0>
    1dde:	68fb      	ldr	r3, [r7, #12]
    1de0:	f003 0370 	and.w	r3, r3, #112	; 0x70
    1de4:	2b70      	cmp	r3, #112	; 0x70
    1de6:	d007      	beq.n	1df8 <SysCtlClockSet+0xf0>
    1de8:	68fb      	ldr	r3, [r7, #12]
    1dea:	2b00      	cmp	r3, #0
    1dec:	db09      	blt.n	1e02 <SysCtlClockSet+0xfa>
    1dee:	693b      	ldr	r3, [r7, #16]
    1df0:	f003 0330 	and.w	r3, r3, #48	; 0x30
    1df4:	2b30      	cmp	r3, #48	; 0x30
    1df6:	d104      	bne.n	1e02 <SysCtlClockSet+0xfa>
    1df8:	f44f 5080 	mov.w	r0, #4096	; 0x1000
    1dfc:	f7ff ff80 	bl	1d00 <SysCtlDelay>
    1e00:	e003      	b.n	1e0a <SysCtlClockSet+0x102>
    1e02:	f44f 2000 	mov.w	r0, #524288	; 0x80000
    1e06:	f7ff ff7b 	bl	1d00 <SysCtlDelay>
    1e0a:	693b      	ldr	r3, [r7, #16]
    1e0c:	f423 535e 	bic.w	r3, r3, #14208	; 0x3780
    1e10:	f023 0370 	bic.w	r3, r3, #112	; 0x70
    1e14:	613b      	str	r3, [r7, #16]
    1e16:	687a      	ldr	r2, [r7, #4]
    1e18:	f243 73f0 	movw	r3, #14320	; 0x37f0
    1e1c:	4013      	ands	r3, r2
    1e1e:	693a      	ldr	r2, [r7, #16]
    1e20:	4313      	orrs	r3, r2
    1e22:	613b      	str	r3, [r7, #16]
    1e24:	68fa      	ldr	r2, [r7, #12]
    1e26:	f64d 738f 	movw	r3, #57231	; 0xdf8f
    1e2a:	f6c7 73ff 	movt	r3, #32767	; 0x7fff
    1e2e:	4013      	ands	r3, r2
    1e30:	60fb      	str	r3, [r7, #12]
    1e32:	687a      	ldr	r2, [r7, #4]
    1e34:	f242 0330 	movw	r3, #8240	; 0x2030
    1e38:	f2c8 0300 	movt	r3, #32768	; 0x8000
    1e3c:	4013      	ands	r3, r2
    1e3e:	68fa      	ldr	r2, [r7, #12]
    1e40:	4313      	orrs	r3, r2
    1e42:	60fb      	str	r3, [r7, #12]
    1e44:	687b      	ldr	r3, [r7, #4]
    1e46:	f003 0308 	and.w	r3, r3, #8
    1e4a:	ea4f 03c3 	mov.w	r3, r3, lsl #3
    1e4e:	68fa      	ldr	r2, [r7, #12]
    1e50:	4313      	orrs	r3, r2
    1e52:	60fb      	str	r3, [r7, #12]
    1e54:	f24e 0358 	movw	r3, #57432	; 0xe058
    1e58:	f2c4 030f 	movt	r3, #16399	; 0x400f
    1e5c:	f04f 0240 	mov.w	r2, #64	; 0x40
    1e60:	601a      	str	r2, [r3, #0]
    1e62:	68fb      	ldr	r3, [r7, #12]
    1e64:	2b00      	cmp	r3, #0
    1e66:	da0c      	bge.n	1e82 <SysCtlClockSet+0x17a>
    1e68:	f24e 0370 	movw	r3, #57456	; 0xe070
    1e6c:	f2c4 030f 	movt	r3, #16399	; 0x400f
    1e70:	68fa      	ldr	r2, [r7, #12]
    1e72:	601a      	str	r2, [r3, #0]
    1e74:	f24e 0360 	movw	r3, #57440	; 0xe060
    1e78:	f2c4 030f 	movt	r3, #16399	; 0x400f
    1e7c:	693a      	ldr	r2, [r7, #16]
    1e7e:	601a      	str	r2, [r3, #0]
    1e80:	e00b      	b.n	1e9a <SysCtlClockSet+0x192>
    1e82:	f24e 0360 	movw	r3, #57440	; 0xe060
    1e86:	f2c4 030f 	movt	r3, #16399	; 0x400f
    1e8a:	693a      	ldr	r2, [r7, #16]
    1e8c:	601a      	str	r2, [r3, #0]
    1e8e:	f24e 0370 	movw	r3, #57456	; 0xe070
    1e92:	f2c4 030f 	movt	r3, #16399	; 0x400f
    1e96:	68fa      	ldr	r2, [r7, #12]
    1e98:	601a      	str	r2, [r3, #0]
    1e9a:	f04f 0010 	mov.w	r0, #16
    1e9e:	f7ff ff2f 	bl	1d00 <SysCtlDelay>
    1ea2:	693b      	ldr	r3, [r7, #16]
    1ea4:	f023 63f8 	bic.w	r3, r3, #130023424	; 0x7c00000
    1ea8:	f023 0303 	bic.w	r3, r3, #3
    1eac:	613b      	str	r3, [r7, #16]
    1eae:	687a      	ldr	r2, [r7, #4]
    1eb0:	f04f 0303 	mov.w	r3, #3
    1eb4:	f2c0 73c0 	movt	r3, #1984	; 0x7c0
    1eb8:	4013      	ands	r3, r2
    1eba:	693a      	ldr	r2, [r7, #16]
    1ebc:	4313      	orrs	r3, r2
    1ebe:	613b      	str	r3, [r7, #16]
    1ec0:	68fb      	ldr	r3, [r7, #12]
    1ec2:	f023 53fc 	bic.w	r3, r3, #528482304	; 0x1f800000
    1ec6:	60fb      	str	r3, [r7, #12]
    1ec8:	687b      	ldr	r3, [r7, #4]
    1eca:	f003 53fc 	and.w	r3, r3, #528482304	; 0x1f800000
    1ece:	68fa      	ldr	r2, [r7, #12]
    1ed0:	4313      	orrs	r3, r2
    1ed2:	60fb      	str	r3, [r7, #12]
    1ed4:	687b      	ldr	r3, [r7, #4]
    1ed6:	f003 4380 	and.w	r3, r3, #1073741824	; 0x40000000
    1eda:	2b00      	cmp	r3, #0
    1edc:	d011      	beq.n	1f02 <SysCtlClockSet+0x1fa>
    1ede:	693b      	ldr	r3, [r7, #16]
    1ee0:	f443 0380 	orr.w	r3, r3, #4194304	; 0x400000
    1ee4:	613b      	str	r3, [r7, #16]
    1ee6:	68fb      	ldr	r3, [r7, #12]
    1ee8:	f423 0380 	bic.w	r3, r3, #4194304	; 0x400000
    1eec:	60fb      	str	r3, [r7, #12]
    1eee:	687a      	ldr	r2, [r7, #4]
    1ef0:	f04f 0300 	mov.w	r3, #0
    1ef4:	f2c4 0340 	movt	r3, #16448	; 0x4040
    1ef8:	4013      	ands	r3, r2
    1efa:	68fa      	ldr	r2, [r7, #12]
    1efc:	4313      	orrs	r3, r2
    1efe:	60fb      	str	r3, [r7, #12]
    1f00:	e003      	b.n	1f0a <SysCtlClockSet+0x202>
    1f02:	68fb      	ldr	r3, [r7, #12]
    1f04:	f023 4380 	bic.w	r3, r3, #1073741824	; 0x40000000
    1f08:	60fb      	str	r3, [r7, #12]
    1f0a:	687b      	ldr	r3, [r7, #4]
    1f0c:	f403 6300 	and.w	r3, r3, #2048	; 0x800
    1f10:	2b00      	cmp	r3, #0
    1f12:	d11d      	bne.n	1f50 <SysCtlClockSet+0x248>
    1f14:	f44f 4300 	mov.w	r3, #32768	; 0x8000
    1f18:	617b      	str	r3, [r7, #20]
    1f1a:	e00c      	b.n	1f36 <SysCtlClockSet+0x22e>
    1f1c:	f24e 0350 	movw	r3, #57424	; 0xe050
    1f20:	f2c4 030f 	movt	r3, #16399	; 0x400f
    1f24:	681b      	ldr	r3, [r3, #0]
    1f26:	f003 0340 	and.w	r3, r3, #64	; 0x40
    1f2a:	2b00      	cmp	r3, #0
    1f2c:	d107      	bne.n	1f3e <SysCtlClockSet+0x236>
    1f2e:	697b      	ldr	r3, [r7, #20]
    1f30:	f103 33ff 	add.w	r3, r3, #4294967295
    1f34:	617b      	str	r3, [r7, #20]
    1f36:	697b      	ldr	r3, [r7, #20]
    1f38:	2b00      	cmp	r3, #0
    1f3a:	d1ef      	bne.n	1f1c <SysCtlClockSet+0x214>
    1f3c:	e000      	b.n	1f40 <SysCtlClockSet+0x238>
    1f3e:	bf00      	nop
    1f40:	693b      	ldr	r3, [r7, #16]
    1f42:	f423 6300 	bic.w	r3, r3, #2048	; 0x800
    1f46:	613b      	str	r3, [r7, #16]
    1f48:	68fb      	ldr	r3, [r7, #12]
    1f4a:	f423 6300 	bic.w	r3, r3, #2048	; 0x800
    1f4e:	60fb      	str	r3, [r7, #12]
    1f50:	f24e 0360 	movw	r3, #57440	; 0xe060
    1f54:	f2c4 030f 	movt	r3, #16399	; 0x400f
    1f58:	693a      	ldr	r2, [r7, #16]
    1f5a:	601a      	str	r2, [r3, #0]
    1f5c:	f24e 0370 	movw	r3, #57456	; 0xe070
    1f60:	f2c4 030f 	movt	r3, #16399	; 0x400f
    1f64:	68fa      	ldr	r2, [r7, #12]
    1f66:	601a      	str	r2, [r3, #0]
    1f68:	f04f 0010 	mov.w	r0, #16
    1f6c:	f7ff fec8 	bl	1d00 <SysCtlDelay>
    1f70:	e000      	b.n	1f74 <SysCtlClockSet+0x26c>
    1f72:	bf00      	nop
    1f74:	f107 0718 	add.w	r7, r7, #24
    1f78:	46bd      	mov	sp, r7
    1f7a:	bd80      	pop	{r7, pc}

00001f7c <SysCtlClockGet>:
    1f7c:	b480      	push	{r7}
    1f7e:	b085      	sub	sp, #20
    1f80:	af00      	add	r7, sp, #0
    1f82:	f24e 0360 	movw	r3, #57440	; 0xe060
    1f86:	f2c4 030f 	movt	r3, #16399	; 0x400f
    1f8a:	681b      	ldr	r3, [r3, #0]
    1f8c:	60fb      	str	r3, [r7, #12]
    1f8e:	f24e 0370 	movw	r3, #57456	; 0xe070
    1f92:	f2c4 030f 	movt	r3, #16399	; 0x400f
    1f96:	681b      	ldr	r3, [r3, #0]
    1f98:	607b      	str	r3, [r7, #4]
    1f9a:	687b      	ldr	r3, [r7, #4]
    1f9c:	2b00      	cmp	r3, #0
    1f9e:	da03      	bge.n	1fa8 <SysCtlClockGet+0x2c>
    1fa0:	687b      	ldr	r3, [r7, #4]
    1fa2:	f003 0370 	and.w	r3, r3, #112	; 0x70
    1fa6:	e002      	b.n	1fae <SysCtlClockGet+0x32>
    1fa8:	68fb      	ldr	r3, [r7, #12]
    1faa:	f003 0330 	and.w	r3, r3, #48	; 0x30
    1fae:	2b20      	cmp	r3, #32
    1fb0:	d07c      	beq.n	20ac <SysCtlClockGet+0x130>
    1fb2:	2b20      	cmp	r3, #32
    1fb4:	d804      	bhi.n	1fc0 <SysCtlClockGet+0x44>
    1fb6:	2b00      	cmp	r3, #0
    1fb8:	d00c      	beq.n	1fd4 <SysCtlClockGet+0x58>
    1fba:	2b10      	cmp	r3, #16
    1fbc:	d017      	beq.n	1fee <SysCtlClockGet+0x72>
    1fbe:	e0e0      	b.n	2182 <SysCtlClockGet+0x206>
    1fc0:	2b60      	cmp	r3, #96	; 0x60
    1fc2:	f000 80d6 	beq.w	2172 <SysCtlClockGet+0x1f6>
    1fc6:	2b70      	cmp	r3, #112	; 0x70
    1fc8:	f000 80d7 	beq.w	217a <SysCtlClockGet+0x1fe>
    1fcc:	2b30      	cmp	r3, #48	; 0x30
    1fce:	f000 80cc 	beq.w	216a <SysCtlClockGet+0x1ee>
    1fd2:	e0d6      	b.n	2182 <SysCtlClockGet+0x206>
    1fd4:	68fb      	ldr	r3, [r7, #12]
    1fd6:	f403 63f8 	and.w	r3, r3, #1984	; 0x7c0
    1fda:	ea4f 1293 	mov.w	r2, r3, lsr #6
    1fde:	f646 1320 	movw	r3, #26912	; 0x6920
    1fe2:	f2c0 0300 	movt	r3, #0
    1fe6:	f853 3022 	ldr.w	r3, [r3, r2, lsl #2]
    1fea:	60bb      	str	r3, [r7, #8]
    1fec:	e0cc      	b.n	2188 <SysCtlClockGet+0x20c>
    1fee:	f44f 4360 	mov.w	r3, #57344	; 0xe000
    1ff2:	f2c4 030f 	movt	r3, #16399	; 0x400f
    1ff6:	681b      	ldr	r3, [r3, #0]
    1ff8:	f003 43e0 	and.w	r3, r3, #1879048192	; 0x70000000
    1ffc:	2b00      	cmp	r3, #0
    1ffe:	d00c      	beq.n	201a <SysCtlClockGet+0x9e>
    2000:	f44f 4360 	mov.w	r3, #57344	; 0xe000
    2004:	f2c4 030f 	movt	r3, #16399	; 0x400f
    2008:	681a      	ldr	r2, [r3, #0]
    200a:	f04f 0300 	mov.w	r3, #0
    200e:	f2c7 03ff 	movt	r3, #28927	; 0x70ff
    2012:	4013      	ands	r3, r2
    2014:	f1b3 5f80 	cmp.w	r3, #268435456	; 0x10000000
    2018:	d105      	bne.n	2026 <SysCtlClockGet+0xaa>
    201a:	f24e 13c0 	movw	r3, #57792	; 0xe1c0
    201e:	f2c0 03e4 	movt	r3, #228	; 0xe4
    2022:	60bb      	str	r3, [r7, #8]
    2024:	e041      	b.n	20aa <SysCtlClockGet+0x12e>
    2026:	f44f 4360 	mov.w	r3, #57344	; 0xe000
    202a:	f2c4 030f 	movt	r3, #16399	; 0x400f
    202e:	681a      	ldr	r2, [r3, #0]
    2030:	f04f 0300 	mov.w	r3, #0
    2034:	f2c7 03ff 	movt	r3, #28927	; 0x70ff
    2038:	4013      	ands	r3, r2
    203a:	f04f 0200 	mov.w	r2, #0
    203e:	f2c1 0201 	movt	r2, #4097	; 0x1001
    2042:	4293      	cmp	r3, r2
    2044:	d10a      	bne.n	205c <SysCtlClockGet+0xe0>
    2046:	f44f 4360 	mov.w	r3, #57344	; 0xe000
    204a:	f2c4 030f 	movt	r3, #16399	; 0x400f
    204e:	681b      	ldr	r3, [r3, #0]
    2050:	ea4f 4303 	mov.w	r3, r3, lsl #16
    2054:	ea4f 4313 	mov.w	r3, r3, lsr #16
    2058:	2b02      	cmp	r3, #2
    205a:	d01a      	beq.n	2092 <SysCtlClockGet+0x116>
    205c:	f44f 4360 	mov.w	r3, #57344	; 0xe000
    2060:	f2c4 030f 	movt	r3, #16399	; 0x400f
    2064:	681a      	ldr	r2, [r3, #0]
    2066:	f04f 0300 	mov.w	r3, #0
    206a:	f2c7 03ff 	movt	r3, #28927	; 0x70ff
    206e:	4013      	ands	r3, r2
    2070:	f04f 0200 	mov.w	r2, #0
    2074:	f2c1 0203 	movt	r2, #4099	; 0x1003
    2078:	4293      	cmp	r3, r2
    207a:	d110      	bne.n	209e <SysCtlClockGet+0x122>
    207c:	f44f 4360 	mov.w	r3, #57344	; 0xe000
    2080:	f2c4 030f 	movt	r3, #16399	; 0x400f
    2084:	681b      	ldr	r3, [r3, #0]
    2086:	ea4f 4303 	mov.w	r3, r3, lsl #16
    208a:	ea4f 4313 	mov.w	r3, r3, lsr #16
    208e:	2b00      	cmp	r3, #0
    2090:	d105      	bne.n	209e <SysCtlClockGet+0x122>
    2092:	f44f 53d8 	mov.w	r3, #6912	; 0x1b00
    2096:	f2c0 03b7 	movt	r3, #183	; 0xb7
    209a:	60bb      	str	r3, [r7, #8]
    209c:	e005      	b.n	20aa <SysCtlClockGet+0x12e>
    209e:	f44f 5310 	mov.w	r3, #9216	; 0x2400
    20a2:	f2c0 03f4 	movt	r3, #244	; 0xf4
    20a6:	60bb      	str	r3, [r7, #8]
    20a8:	e06e      	b.n	2188 <SysCtlClockGet+0x20c>
    20aa:	e06d      	b.n	2188 <SysCtlClockGet+0x20c>
    20ac:	f44f 4360 	mov.w	r3, #57344	; 0xe000
    20b0:	f2c4 030f 	movt	r3, #16399	; 0x400f
    20b4:	681b      	ldr	r3, [r3, #0]
    20b6:	f003 43e0 	and.w	r3, r3, #1879048192	; 0x70000000
    20ba:	2b00      	cmp	r3, #0
    20bc:	d00c      	beq.n	20d8 <SysCtlClockGet+0x15c>
    20be:	f44f 4360 	mov.w	r3, #57344	; 0xe000
    20c2:	f2c4 030f 	movt	r3, #16399	; 0x400f
    20c6:	681a      	ldr	r2, [r3, #0]
    20c8:	f04f 0300 	mov.w	r3, #0
    20cc:	f2c7 03ff 	movt	r3, #28927	; 0x70ff
    20d0:	4013      	ands	r3, r2
    20d2:	f1b3 5f80 	cmp.w	r3, #268435456	; 0x10000000
    20d6:	d105      	bne.n	20e4 <SysCtlClockGet+0x168>
    20d8:	f643 0370 	movw	r3, #14448	; 0x3870
    20dc:	f2c0 0339 	movt	r3, #57	; 0x39
    20e0:	60bb      	str	r3, [r7, #8]
    20e2:	e041      	b.n	2168 <SysCtlClockGet+0x1ec>
    20e4:	f44f 4360 	mov.w	r3, #57344	; 0xe000
    20e8:	f2c4 030f 	movt	r3, #16399	; 0x400f
    20ec:	681a      	ldr	r2, [r3, #0]
    20ee:	f04f 0300 	mov.w	r3, #0
    20f2:	f2c7 03ff 	movt	r3, #28927	; 0x70ff
    20f6:	4013      	ands	r3, r2
    20f8:	f04f 0200 	mov.w	r2, #0
    20fc:	f2c1 0201 	movt	r2, #4097	; 0x1001
    2100:	4293      	cmp	r3, r2
    2102:	d10a      	bne.n	211a <SysCtlClockGet+0x19e>
    2104:	f44f 4360 	mov.w	r3, #57344	; 0xe000
    2108:	f2c4 030f 	movt	r3, #16399	; 0x400f
    210c:	681b      	ldr	r3, [r3, #0]
    210e:	ea4f 4303 	mov.w	r3, r3, lsl #16
    2112:	ea4f 4313 	mov.w	r3, r3, lsr #16
    2116:	2b02      	cmp	r3, #2
    2118:	d01a      	beq.n	2150 <SysCtlClockGet+0x1d4>
    211a:	f44f 4360 	mov.w	r3, #57344	; 0xe000
    211e:	f2c4 030f 	movt	r3, #16399	; 0x400f
    2122:	681a      	ldr	r2, [r3, #0]
    2124:	f04f 0300 	mov.w	r3, #0
    2128:	f2c7 03ff 	movt	r3, #28927	; 0x70ff
    212c:	4013      	ands	r3, r2
    212e:	f04f 0200 	mov.w	r2, #0
    2132:	f2c1 0203 	movt	r2, #4099	; 0x1003
    2136:	4293      	cmp	r3, r2
    2138:	d110      	bne.n	215c <SysCtlClockGet+0x1e0>
    213a:	f44f 4360 	mov.w	r3, #57344	; 0xe000
    213e:	f2c4 030f 	movt	r3, #16399	; 0x400f
    2142:	681b      	ldr	r3, [r3, #0]
    2144:	ea4f 4303 	mov.w	r3, r3, lsl #16
    2148:	ea4f 4313 	mov.w	r3, r3, lsr #16
    214c:	2b00      	cmp	r3, #0
    214e:	d105      	bne.n	215c <SysCtlClockGet+0x1e0>
    2150:	f24c 63c0 	movw	r3, #50880	; 0xc6c0
    2154:	f2c0 032d 	movt	r3, #45	; 0x2d
    2158:	60bb      	str	r3, [r7, #8]
    215a:	e005      	b.n	2168 <SysCtlClockGet+0x1ec>
    215c:	f44f 6310 	mov.w	r3, #2304	; 0x900
    2160:	f2c0 033d 	movt	r3, #61	; 0x3d
    2164:	60bb      	str	r3, [r7, #8]
    2166:	e00f      	b.n	2188 <SysCtlClockGet+0x20c>
    2168:	e00e      	b.n	2188 <SysCtlClockGet+0x20c>
    216a:	f247 5330 	movw	r3, #30000	; 0x7530
    216e:	60bb      	str	r3, [r7, #8]
    2170:	e00a      	b.n	2188 <SysCtlClockGet+0x20c>
    2172:	f44f 0380 	mov.w	r3, #4194304	; 0x400000
    2176:	60bb      	str	r3, [r7, #8]
    2178:	e006      	b.n	2188 <SysCtlClockGet+0x20c>
    217a:	f44f 4300 	mov.w	r3, #32768	; 0x8000
    217e:	60bb      	str	r3, [r7, #8]
    2180:	e002      	b.n	2188 <SysCtlClockGet+0x20c>
    2182:	f04f 0300 	mov.w	r3, #0
    2186:	e0ab      	b.n	22e0 <SysCtlClockGet+0x364>
    2188:	687b      	ldr	r3, [r7, #4]
    218a:	2b00      	cmp	r3, #0
    218c:	da04      	bge.n	2198 <SysCtlClockGet+0x21c>
    218e:	687b      	ldr	r3, [r7, #4]
    2190:	f403 6300 	and.w	r3, r3, #2048	; 0x800
    2194:	2b00      	cmp	r3, #0
    2196:	d007      	beq.n	21a8 <SysCtlClockGet+0x22c>
    2198:	687b      	ldr	r3, [r7, #4]
    219a:	2b00      	cmp	r3, #0
    219c:	db5d      	blt.n	225a <SysCtlClockGet+0x2de>
    219e:	68fb      	ldr	r3, [r7, #12]
    21a0:	f403 6300 	and.w	r3, r3, #2048	; 0x800
    21a4:	2b00      	cmp	r3, #0
    21a6:	d158      	bne.n	225a <SysCtlClockGet+0x2de>
    21a8:	f24e 0364 	movw	r3, #57444	; 0xe064
    21ac:	f2c4 030f 	movt	r3, #16399	; 0x400f
    21b0:	681b      	ldr	r3, [r3, #0]
    21b2:	603b      	str	r3, [r7, #0]
    21b4:	f44f 4360 	mov.w	r3, #57344	; 0xe000
    21b8:	f2c4 030f 	movt	r3, #16399	; 0x400f
    21bc:	681b      	ldr	r3, [r3, #0]
    21be:	f003 43e0 	and.w	r3, r3, #1879048192	; 0x70000000
    21c2:	2b00      	cmp	r3, #0
    21c4:	d00c      	beq.n	21e0 <SysCtlClockGet+0x264>
    21c6:	f44f 4360 	mov.w	r3, #57344	; 0xe000
    21ca:	f2c4 030f 	movt	r3, #16399	; 0x400f
    21ce:	681a      	ldr	r2, [r3, #0]
    21d0:	f04f 0300 	mov.w	r3, #0
    21d4:	f2c7 03ff 	movt	r3, #28927	; 0x70ff
    21d8:	4013      	ands	r3, r2
    21da:	f1b3 5f80 	cmp.w	r3, #268435456	; 0x10000000
    21de:	d113      	bne.n	2208 <SysCtlClockGet+0x28c>
    21e0:	683a      	ldr	r2, [r7, #0]
    21e2:	f643 73e0 	movw	r3, #16352	; 0x3fe0
    21e6:	4013      	ands	r3, r2
    21e8:	ea4f 1353 	mov.w	r3, r3, lsr #5
    21ec:	f103 0302 	add.w	r3, r3, #2
    21f0:	68ba      	ldr	r2, [r7, #8]
    21f2:	fb02 f203 	mul.w	r2, r2, r3
    21f6:	683b      	ldr	r3, [r7, #0]
    21f8:	f003 031f 	and.w	r3, r3, #31
    21fc:	f103 0302 	add.w	r3, r3, #2
    2200:	fbb2 f3f3 	udiv	r3, r2, r3
    2204:	60bb      	str	r3, [r7, #8]
    2206:	e012      	b.n	222e <SysCtlClockGet+0x2b2>
    2208:	683a      	ldr	r2, [r7, #0]
    220a:	f643 73e0 	movw	r3, #16352	; 0x3fe0
    220e:	4013      	ands	r3, r2
    2210:	ea4f 1353 	mov.w	r3, r3, lsr #5
    2214:	68ba      	ldr	r2, [r7, #8]
    2216:	fb02 f203 	mul.w	r2, r2, r3
    221a:	683b      	ldr	r3, [r7, #0]
    221c:	f003 031f 	and.w	r3, r3, #31
    2220:	f103 0301 	add.w	r3, r3, #1
    2224:	ea4f 0343 	mov.w	r3, r3, lsl #1
    2228:	fbb2 f3f3 	udiv	r3, r2, r3
    222c:	60bb      	str	r3, [r7, #8]
    222e:	683b      	ldr	r3, [r7, #0]
    2230:	f403 4380 	and.w	r3, r3, #16384	; 0x4000
    2234:	2b00      	cmp	r3, #0
    2236:	d003      	beq.n	2240 <SysCtlClockGet+0x2c4>
    2238:	68bb      	ldr	r3, [r7, #8]
    223a:	ea4f 0353 	mov.w	r3, r3, lsr #1
    223e:	60bb      	str	r3, [r7, #8]
    2240:	683b      	ldr	r3, [r7, #0]
    2242:	f403 4300 	and.w	r3, r3, #32768	; 0x8000
    2246:	2b00      	cmp	r3, #0
    2248:	d003      	beq.n	2252 <SysCtlClockGet+0x2d6>
    224a:	68bb      	ldr	r3, [r7, #8]
    224c:	ea4f 0393 	mov.w	r3, r3, lsr #2
    2250:	60bb      	str	r3, [r7, #8]
    2252:	68fb      	ldr	r3, [r7, #12]
    2254:	f443 0380 	orr.w	r3, r3, #4194304	; 0x400000
    2258:	60fb      	str	r3, [r7, #12]
    225a:	68fb      	ldr	r3, [r7, #12]
    225c:	f403 0380 	and.w	r3, r3, #4194304	; 0x400000
    2260:	2b00      	cmp	r3, #0
    2262:	d03c      	beq.n	22de <SysCtlClockGet+0x362>
    2264:	687b      	ldr	r3, [r7, #4]
    2266:	2b00      	cmp	r3, #0
    2268:	da2e      	bge.n	22c8 <SysCtlClockGet+0x34c>
    226a:	687b      	ldr	r3, [r7, #4]
    226c:	f003 4380 	and.w	r3, r3, #1073741824	; 0x40000000
    2270:	2b00      	cmp	r3, #0
    2272:	d01d      	beq.n	22b0 <SysCtlClockGet+0x334>
    2274:	687b      	ldr	r3, [r7, #4]
    2276:	2b00      	cmp	r3, #0
    2278:	da04      	bge.n	2284 <SysCtlClockGet+0x308>
    227a:	687b      	ldr	r3, [r7, #4]
    227c:	f403 6300 	and.w	r3, r3, #2048	; 0x800
    2280:	2b00      	cmp	r3, #0
    2282:	d007      	beq.n	2294 <SysCtlClockGet+0x318>
    2284:	687b      	ldr	r3, [r7, #4]
    2286:	2b00      	cmp	r3, #0
    2288:	db12      	blt.n	22b0 <SysCtlClockGet+0x334>
    228a:	68fb      	ldr	r3, [r7, #12]
    228c:	f403 6300 	and.w	r3, r3, #2048	; 0x800
    2290:	2b00      	cmp	r3, #0
    2292:	d10d      	bne.n	22b0 <SysCtlClockGet+0x334>
    2294:	68bb      	ldr	r3, [r7, #8]
    2296:	ea4f 0243 	mov.w	r2, r3, lsl #1
    229a:	687b      	ldr	r3, [r7, #4]
    229c:	f003 53fe 	and.w	r3, r3, #532676608	; 0x1fc00000
    22a0:	ea4f 5393 	mov.w	r3, r3, lsr #22
    22a4:	f103 0301 	add.w	r3, r3, #1
    22a8:	fbb2 f3f3 	udiv	r3, r2, r3
    22ac:	60bb      	str	r3, [r7, #8]
    22ae:	e016      	b.n	22de <SysCtlClockGet+0x362>
    22b0:	687b      	ldr	r3, [r7, #4]
    22b2:	f003 53fc 	and.w	r3, r3, #528482304	; 0x1f800000
    22b6:	ea4f 53d3 	mov.w	r3, r3, lsr #23
    22ba:	f103 0301 	add.w	r3, r3, #1
    22be:	68ba      	ldr	r2, [r7, #8]
    22c0:	fbb2 f3f3 	udiv	r3, r2, r3
    22c4:	60bb      	str	r3, [r7, #8]
    22c6:	e00a      	b.n	22de <SysCtlClockGet+0x362>
    22c8:	68fb      	ldr	r3, [r7, #12]
    22ca:	f003 63f0 	and.w	r3, r3, #125829120	; 0x7800000
    22ce:	ea4f 53d3 	mov.w	r3, r3, lsr #23
    22d2:	f103 0301 	add.w	r3, r3, #1
    22d6:	68ba      	ldr	r2, [r7, #8]
    22d8:	fbb2 f3f3 	udiv	r3, r2, r3
    22dc:	60bb      	str	r3, [r7, #8]
    22de:	68bb      	ldr	r3, [r7, #8]
    22e0:	4618      	mov	r0, r3
    22e2:	f107 0714 	add.w	r7, r7, #20
    22e6:	46bd      	mov	sp, r7
    22e8:	bc80      	pop	{r7}
    22ea:	4770      	bx	lr

000022ec <CANIntNumberGet>:
    22ec:	b480      	push	{r7}
    22ee:	b085      	sub	sp, #20
    22f0:	af00      	add	r7, sp, #0
    22f2:	6078      	str	r0, [r7, #4]
    22f4:	687a      	ldr	r2, [r7, #4]
    22f6:	f44f 5380 	mov.w	r3, #4096	; 0x1000
    22fa:	f2c4 0304 	movt	r3, #16388	; 0x4004
    22fe:	429a      	cmp	r2, r3
    2300:	d00f      	beq.n	2322 <CANIntNumberGet+0x36>
    2302:	f44f 5300 	mov.w	r3, #8192	; 0x2000
    2306:	f2c4 0304 	movt	r3, #16388	; 0x4004
    230a:	429a      	cmp	r2, r3
    230c:	d00d      	beq.n	232a <CANIntNumberGet+0x3e>
    230e:	f04f 0300 	mov.w	r3, #0
    2312:	f2c4 0304 	movt	r3, #16388	; 0x4004
    2316:	429a      	cmp	r2, r3
    2318:	d10b      	bne.n	2332 <CANIntNumberGet+0x46>
    231a:	f04f 0337 	mov.w	r3, #55	; 0x37
    231e:	60fb      	str	r3, [r7, #12]
    2320:	e00a      	b.n	2338 <CANIntNumberGet+0x4c>
    2322:	f04f 0338 	mov.w	r3, #56	; 0x38
    2326:	60fb      	str	r3, [r7, #12]
    2328:	e006      	b.n	2338 <CANIntNumberGet+0x4c>
    232a:	f04f 0339 	mov.w	r3, #57	; 0x39
    232e:	60fb      	str	r3, [r7, #12]
    2330:	e002      	b.n	2338 <CANIntNumberGet+0x4c>
    2332:	f04f 33ff 	mov.w	r3, #4294967295
    2336:	60fb      	str	r3, [r7, #12]
    2338:	68fb      	ldr	r3, [r7, #12]
    233a:	4618      	mov	r0, r3
    233c:	f107 0714 	add.w	r7, r7, #20
    2340:	46bd      	mov	sp, r7
    2342:	bc80      	pop	{r7}
    2344:	4770      	bx	lr
    2346:	bf00      	nop

00002348 <CANRegRead>:
    2348:	b580      	push	{r7, lr}
    234a:	b086      	sub	sp, #24
    234c:	af00      	add	r7, sp, #0
    234e:	6078      	str	r0, [r7, #4]
    2350:	687b      	ldr	r3, [r7, #4]
    2352:	f423 637e 	bic.w	r3, r3, #4064	; 0xfe0
    2356:	f023 031f 	bic.w	r3, r3, #31
    235a:	4618      	mov	r0, r3
    235c:	f7ff ffc6 	bl	22ec <CANIntNumberGet>
    2360:	4603      	mov	r3, r0
    2362:	617b      	str	r3, [r7, #20]
    2364:	f24e 1304 	movw	r3, #57604	; 0xe104
    2368:	f2ce 0300 	movt	r3, #57344	; 0xe000
    236c:	681a      	ldr	r2, [r3, #0]
    236e:	697b      	ldr	r3, [r7, #20]
    2370:	f1a3 0330 	sub.w	r3, r3, #48	; 0x30
    2374:	f04f 0101 	mov.w	r1, #1
    2378:	fa01 f303 	lsl.w	r3, r1, r3
    237c:	4013      	ands	r3, r2
    237e:	613b      	str	r3, [r7, #16]
    2380:	693b      	ldr	r3, [r7, #16]
    2382:	2b00      	cmp	r3, #0
    2384:	d002      	beq.n	238c <CANRegRead+0x44>
    2386:	6978      	ldr	r0, [r7, #20]
    2388:	f001 fcec 	bl	3d64 <IntDisable>
    238c:	687b      	ldr	r3, [r7, #4]
    238e:	681b      	ldr	r3, [r3, #0]
    2390:	f04f 0300 	mov.w	r3, #0
    2394:	60bb      	str	r3, [r7, #8]
    2396:	e003      	b.n	23a0 <CANRegRead+0x58>
    2398:	68bb      	ldr	r3, [r7, #8]
    239a:	f103 0301 	add.w	r3, r3, #1
    239e:	60bb      	str	r3, [r7, #8]
    23a0:	68bb      	ldr	r3, [r7, #8]
    23a2:	2b04      	cmp	r3, #4
    23a4:	ddf8      	ble.n	2398 <CANRegRead+0x50>
    23a6:	687b      	ldr	r3, [r7, #4]
    23a8:	681b      	ldr	r3, [r3, #0]
    23aa:	60fb      	str	r3, [r7, #12]
    23ac:	693b      	ldr	r3, [r7, #16]
    23ae:	2b00      	cmp	r3, #0
    23b0:	d002      	beq.n	23b8 <CANRegRead+0x70>
    23b2:	6978      	ldr	r0, [r7, #20]
    23b4:	f001 fc6a 	bl	3c8c <IntEnable>
    23b8:	68fb      	ldr	r3, [r7, #12]
    23ba:	4618      	mov	r0, r3
    23bc:	f107 0718 	add.w	r7, r7, #24
    23c0:	46bd      	mov	sp, r7
    23c2:	bd80      	pop	{r7, pc}

000023c4 <CANRegWrite>:
    23c4:	b480      	push	{r7}
    23c6:	b085      	sub	sp, #20
    23c8:	af00      	add	r7, sp, #0
    23ca:	6078      	str	r0, [r7, #4]
    23cc:	6039      	str	r1, [r7, #0]
    23ce:	687b      	ldr	r3, [r7, #4]
    23d0:	683a      	ldr	r2, [r7, #0]
    23d2:	601a      	str	r2, [r3, #0]
    23d4:	f04f 0300 	mov.w	r3, #0
    23d8:	60fb      	str	r3, [r7, #12]
    23da:	e003      	b.n	23e4 <CANRegWrite+0x20>
    23dc:	68fb      	ldr	r3, [r7, #12]
    23de:	f103 0301 	add.w	r3, r3, #1
    23e2:	60fb      	str	r3, [r7, #12]
    23e4:	68fb      	ldr	r3, [r7, #12]
    23e6:	2b04      	cmp	r3, #4
    23e8:	ddf8      	ble.n	23dc <CANRegWrite+0x18>
    23ea:	f107 0714 	add.w	r7, r7, #20
    23ee:	46bd      	mov	sp, r7
    23f0:	bc80      	pop	{r7}
    23f2:	4770      	bx	lr

000023f4 <CANDataRegWrite>:
    23f4:	b580      	push	{r7, lr}
    23f6:	b086      	sub	sp, #24
    23f8:	af00      	add	r7, sp, #0
    23fa:	60f8      	str	r0, [r7, #12]
    23fc:	60b9      	str	r1, [r7, #8]
    23fe:	607a      	str	r2, [r7, #4]
    2400:	f04f 0300 	mov.w	r3, #0
    2404:	617b      	str	r3, [r7, #20]
    2406:	e022      	b.n	244e <CANDataRegWrite+0x5a>
    2408:	697b      	ldr	r3, [r7, #20]
    240a:	68fa      	ldr	r2, [r7, #12]
    240c:	18d3      	adds	r3, r2, r3
    240e:	781b      	ldrb	r3, [r3, #0]
    2410:	613b      	str	r3, [r7, #16]
    2412:	697b      	ldr	r3, [r7, #20]
    2414:	f103 0301 	add.w	r3, r3, #1
    2418:	617b      	str	r3, [r7, #20]
    241a:	697a      	ldr	r2, [r7, #20]
    241c:	687b      	ldr	r3, [r7, #4]
    241e:	429a      	cmp	r2, r3
    2420:	da0c      	bge.n	243c <CANDataRegWrite+0x48>
    2422:	697b      	ldr	r3, [r7, #20]
    2424:	68fa      	ldr	r2, [r7, #12]
    2426:	18d3      	adds	r3, r2, r3
    2428:	781b      	ldrb	r3, [r3, #0]
    242a:	ea4f 2303 	mov.w	r3, r3, lsl #8
    242e:	693a      	ldr	r2, [r7, #16]
    2430:	4313      	orrs	r3, r2
    2432:	613b      	str	r3, [r7, #16]
    2434:	697b      	ldr	r3, [r7, #20]
    2436:	f103 0301 	add.w	r3, r3, #1
    243a:	617b      	str	r3, [r7, #20]
    243c:	68bb      	ldr	r3, [r7, #8]
    243e:	68ba      	ldr	r2, [r7, #8]
    2440:	f102 0204 	add.w	r2, r2, #4
    2444:	60ba      	str	r2, [r7, #8]
    2446:	4618      	mov	r0, r3
    2448:	6939      	ldr	r1, [r7, #16]
    244a:	f7ff ffbb 	bl	23c4 <CANRegWrite>
    244e:	697a      	ldr	r2, [r7, #20]
    2450:	687b      	ldr	r3, [r7, #4]
    2452:	429a      	cmp	r2, r3
    2454:	dbd8      	blt.n	2408 <CANDataRegWrite+0x14>
    2456:	f107 0718 	add.w	r7, r7, #24
    245a:	46bd      	mov	sp, r7
    245c:	bd80      	pop	{r7, pc}
    245e:	bf00      	nop

00002460 <CANInit>:
    2460:	b580      	push	{r7, lr}
    2462:	b084      	sub	sp, #16
    2464:	af00      	add	r7, sp, #0
    2466:	6078      	str	r0, [r7, #4]
    2468:	6878      	ldr	r0, [r7, #4]
    246a:	f04f 0101 	mov.w	r1, #1
    246e:	f7ff ffa9 	bl	23c4 <CANRegWrite>
    2472:	bf00      	nop
    2474:	687b      	ldr	r3, [r7, #4]
    2476:	f103 0320 	add.w	r3, r3, #32
    247a:	4618      	mov	r0, r3
    247c:	f7ff ff64 	bl	2348 <CANRegRead>
    2480:	4603      	mov	r3, r0
    2482:	f403 4300 	and.w	r3, r3, #32768	; 0x8000
    2486:	2b00      	cmp	r3, #0
    2488:	d1f4      	bne.n	2474 <CANInit+0x14>
    248a:	687b      	ldr	r3, [r7, #4]
    248c:	f103 0324 	add.w	r3, r3, #36	; 0x24
    2490:	4618      	mov	r0, r3
    2492:	f04f 01b0 	mov.w	r1, #176	; 0xb0
    2496:	f7ff ff95 	bl	23c4 <CANRegWrite>
    249a:	687b      	ldr	r3, [r7, #4]
    249c:	f103 0334 	add.w	r3, r3, #52	; 0x34
    24a0:	4618      	mov	r0, r3
    24a2:	f04f 0100 	mov.w	r1, #0
    24a6:	f7ff ff8d 	bl	23c4 <CANRegWrite>
    24aa:	687b      	ldr	r3, [r7, #4]
    24ac:	f103 0338 	add.w	r3, r3, #56	; 0x38
    24b0:	4618      	mov	r0, r3
    24b2:	f04f 0100 	mov.w	r1, #0
    24b6:	f7ff ff85 	bl	23c4 <CANRegWrite>
    24ba:	f04f 0301 	mov.w	r3, #1
    24be:	60fb      	str	r3, [r7, #12]
    24c0:	e017      	b.n	24f2 <CANInit+0x92>
    24c2:	bf00      	nop
    24c4:	687b      	ldr	r3, [r7, #4]
    24c6:	f103 0320 	add.w	r3, r3, #32
    24ca:	4618      	mov	r0, r3
    24cc:	f7ff ff3c 	bl	2348 <CANRegRead>
    24d0:	4603      	mov	r3, r0
    24d2:	f403 4300 	and.w	r3, r3, #32768	; 0x8000
    24d6:	2b00      	cmp	r3, #0
    24d8:	d1f4      	bne.n	24c4 <CANInit+0x64>
    24da:	687b      	ldr	r3, [r7, #4]
    24dc:	f103 0220 	add.w	r2, r3, #32
    24e0:	68fb      	ldr	r3, [r7, #12]
    24e2:	4610      	mov	r0, r2
    24e4:	4619      	mov	r1, r3
    24e6:	f7ff ff6d 	bl	23c4 <CANRegWrite>
    24ea:	68fb      	ldr	r3, [r7, #12]
    24ec:	f103 0301 	add.w	r3, r3, #1
    24f0:	60fb      	str	r3, [r7, #12]
    24f2:	68fb      	ldr	r3, [r7, #12]
    24f4:	2b20      	cmp	r3, #32
    24f6:	dde4      	ble.n	24c2 <CANInit+0x62>
    24f8:	687b      	ldr	r3, [r7, #4]
    24fa:	f103 0324 	add.w	r3, r3, #36	; 0x24
    24fe:	4618      	mov	r0, r3
    2500:	f04f 010c 	mov.w	r1, #12
    2504:	f7ff ff5e 	bl	23c4 <CANRegWrite>
    2508:	f04f 0301 	mov.w	r3, #1
    250c:	60fb      	str	r3, [r7, #12]
    250e:	e017      	b.n	2540 <CANInit+0xe0>
    2510:	bf00      	nop
    2512:	687b      	ldr	r3, [r7, #4]
    2514:	f103 0320 	add.w	r3, r3, #32
    2518:	4618      	mov	r0, r3
    251a:	f7ff ff15 	bl	2348 <CANRegRead>
    251e:	4603      	mov	r3, r0
    2520:	f403 4300 	and.w	r3, r3, #32768	; 0x8000
    2524:	2b00      	cmp	r3, #0
    2526:	d1f4      	bne.n	2512 <CANInit+0xb2>
    2528:	687b      	ldr	r3, [r7, #4]
    252a:	f103 0220 	add.w	r2, r3, #32
    252e:	68fb      	ldr	r3, [r7, #12]
    2530:	4610      	mov	r0, r2
    2532:	4619      	mov	r1, r3
    2534:	f7ff ff46 	bl	23c4 <CANRegWrite>
    2538:	68fb      	ldr	r3, [r7, #12]
    253a:	f103 0301 	add.w	r3, r3, #1
    253e:	60fb      	str	r3, [r7, #12]
    2540:	68fb      	ldr	r3, [r7, #12]
    2542:	2b20      	cmp	r3, #32
    2544:	dde4      	ble.n	2510 <CANInit+0xb0>
    2546:	687b      	ldr	r3, [r7, #4]
    2548:	f103 0304 	add.w	r3, r3, #4
    254c:	4618      	mov	r0, r3
    254e:	f7ff fefb 	bl	2348 <CANRegRead>
    2552:	f107 0710 	add.w	r7, r7, #16
    2556:	46bd      	mov	sp, r7
    2558:	bd80      	pop	{r7, pc}
    255a:	bf00      	nop

0000255c <CANEnable>:
    255c:	b580      	push	{r7, lr}
    255e:	b082      	sub	sp, #8
    2560:	af00      	add	r7, sp, #0
    2562:	6078      	str	r0, [r7, #4]
    2564:	6878      	ldr	r0, [r7, #4]
    2566:	f7ff feef 	bl	2348 <CANRegRead>
    256a:	4603      	mov	r3, r0
    256c:	f023 0301 	bic.w	r3, r3, #1
    2570:	6878      	ldr	r0, [r7, #4]
    2572:	4619      	mov	r1, r3
    2574:	f7ff ff26 	bl	23c4 <CANRegWrite>
    2578:	f107 0708 	add.w	r7, r7, #8
    257c:	46bd      	mov	sp, r7
    257e:	bd80      	pop	{r7, pc}

00002580 <CANBitRateSet>:
    2580:	b580      	push	{r7, lr}
    2582:	b08a      	sub	sp, #40	; 0x28
    2584:	af00      	add	r7, sp, #0
    2586:	60f8      	str	r0, [r7, #12]
    2588:	60b9      	str	r1, [r7, #8]
    258a:	607a      	str	r2, [r7, #4]
    258c:	68ba      	ldr	r2, [r7, #8]
    258e:	687b      	ldr	r3, [r7, #4]
    2590:	fbb2 f3f3 	udiv	r3, r2, r3
    2594:	627b      	str	r3, [r7, #36]	; 0x24
    2596:	68ba      	ldr	r2, [r7, #8]
    2598:	6a7b      	ldr	r3, [r7, #36]	; 0x24
    259a:	fbb2 f2f3 	udiv	r2, r2, r3
    259e:	687b      	ldr	r3, [r7, #4]
    25a0:	429a      	cmp	r2, r3
    25a2:	d960      	bls.n	2666 <CANBitRateSet+0xe6>
    25a4:	6a7b      	ldr	r3, [r7, #36]	; 0x24
    25a6:	f103 0301 	add.w	r3, r3, #1
    25aa:	627b      	str	r3, [r7, #36]	; 0x24
    25ac:	e05b      	b.n	2666 <CANBitRateSet+0xe6>
    25ae:	f04f 0313 	mov.w	r3, #19
    25b2:	623b      	str	r3, [r7, #32]
    25b4:	e050      	b.n	2658 <CANBitRateSet+0xd8>
    25b6:	6a7a      	ldr	r2, [r7, #36]	; 0x24
    25b8:	6a3b      	ldr	r3, [r7, #32]
    25ba:	fbb2 f3f3 	udiv	r3, r2, r3
    25be:	61fb      	str	r3, [r7, #28]
    25c0:	69fb      	ldr	r3, [r7, #28]
    25c2:	6a3a      	ldr	r2, [r7, #32]
    25c4:	fb02 f203 	mul.w	r2, r2, r3
    25c8:	6a7b      	ldr	r3, [r7, #36]	; 0x24
    25ca:	429a      	cmp	r2, r3
    25cc:	d140      	bne.n	2650 <CANBitRateSet+0xd0>
    25ce:	6a3b      	ldr	r3, [r7, #32]
    25d0:	f1a3 0204 	sub.w	r2, r3, #4
    25d4:	f646 137c 	movw	r3, #27004	; 0x697c
    25d8:	f2c0 0300 	movt	r3, #0
    25dc:	f833 3012 	ldrh.w	r3, [r3, r2, lsl #1]
    25e0:	61bb      	str	r3, [r7, #24]
    25e2:	68f8      	ldr	r0, [r7, #12]
    25e4:	f7ff feb0 	bl	2348 <CANRegRead>
    25e8:	4603      	mov	r3, r0
    25ea:	82fb      	strh	r3, [r7, #22]
    25ec:	8afb      	ldrh	r3, [r7, #22]
    25ee:	f043 0341 	orr.w	r3, r3, #65	; 0x41
    25f2:	b29b      	uxth	r3, r3
    25f4:	68f8      	ldr	r0, [r7, #12]
    25f6:	4619      	mov	r1, r3
    25f8:	f7ff fee4 	bl	23c4 <CANRegWrite>
    25fc:	69fb      	ldr	r3, [r7, #28]
    25fe:	f103 33ff 	add.w	r3, r3, #4294967295
    2602:	f003 033f 	and.w	r3, r3, #63	; 0x3f
    2606:	69ba      	ldr	r2, [r7, #24]
    2608:	4313      	orrs	r3, r2
    260a:	61bb      	str	r3, [r7, #24]
    260c:	68fb      	ldr	r3, [r7, #12]
    260e:	f103 030c 	add.w	r3, r3, #12
    2612:	4618      	mov	r0, r3
    2614:	69b9      	ldr	r1, [r7, #24]
    2616:	f7ff fed5 	bl	23c4 <CANRegWrite>
    261a:	68fb      	ldr	r3, [r7, #12]
    261c:	f103 0218 	add.w	r2, r3, #24
    2620:	69fb      	ldr	r3, [r7, #28]
    2622:	f103 33ff 	add.w	r3, r3, #4294967295
    2626:	ea4f 1393 	mov.w	r3, r3, lsr #6
    262a:	f003 030f 	and.w	r3, r3, #15
    262e:	4610      	mov	r0, r2
    2630:	4619      	mov	r1, r3
    2632:	f7ff fec7 	bl	23c4 <CANRegWrite>
    2636:	8afb      	ldrh	r3, [r7, #22]
    2638:	68f8      	ldr	r0, [r7, #12]
    263a:	4619      	mov	r1, r3
    263c:	f7ff fec2 	bl	23c4 <CANRegWrite>
    2640:	69fb      	ldr	r3, [r7, #28]
    2642:	6a3a      	ldr	r2, [r7, #32]
    2644:	fb02 f303 	mul.w	r3, r2, r3
    2648:	68ba      	ldr	r2, [r7, #8]
    264a:	fbb2 f3f3 	udiv	r3, r2, r3
    264e:	e010      	b.n	2672 <CANBitRateSet+0xf2>
    2650:	6a3b      	ldr	r3, [r7, #32]
    2652:	f103 33ff 	add.w	r3, r3, #4294967295
    2656:	623b      	str	r3, [r7, #32]
    2658:	6a3b      	ldr	r3, [r7, #32]
    265a:	2b03      	cmp	r3, #3
    265c:	d8ab      	bhi.n	25b6 <CANBitRateSet+0x36>
    265e:	6a7b      	ldr	r3, [r7, #36]	; 0x24
    2660:	f103 0301 	add.w	r3, r3, #1
    2664:	627b      	str	r3, [r7, #36]	; 0x24
    2666:	6a7b      	ldr	r3, [r7, #36]	; 0x24
    2668:	f5b3 4f98 	cmp.w	r3, #19456	; 0x4c00
    266c:	d99f      	bls.n	25ae <CANBitRateSet+0x2e>
    266e:	f04f 0300 	mov.w	r3, #0
    2672:	4618      	mov	r0, r3
    2674:	f107 0728 	add.w	r7, r7, #40	; 0x28
    2678:	46bd      	mov	sp, r7
    267a:	bd80      	pop	{r7, pc}

0000267c <CANMessageSet>:
    267c:	b580      	push	{r7, lr}
    267e:	b088      	sub	sp, #32
    2680:	af00      	add	r7, sp, #0
    2682:	60f8      	str	r0, [r7, #12]
    2684:	60b9      	str	r1, [r7, #8]
    2686:	607a      	str	r2, [r7, #4]
    2688:	70fb      	strb	r3, [r7, #3]
    268a:	f04f 0300 	mov.w	r3, #0
    268e:	74fb      	strb	r3, [r7, #19]
    2690:	bf00      	nop
    2692:	68fb      	ldr	r3, [r7, #12]
    2694:	f103 0320 	add.w	r3, r3, #32
    2698:	4618      	mov	r0, r3
    269a:	f7ff fe55 	bl	2348 <CANRegRead>
    269e:	4603      	mov	r3, r0
    26a0:	f403 4300 	and.w	r3, r3, #32768	; 0x8000
    26a4:	2b00      	cmp	r3, #0
    26a6:	d1f4      	bne.n	2692 <CANMessageSet+0x16>
    26a8:	687b      	ldr	r3, [r7, #4]
    26aa:	681a      	ldr	r2, [r3, #0]
    26ac:	f240 73ff 	movw	r3, #2047	; 0x7ff
    26b0:	429a      	cmp	r2, r3
    26b2:	d805      	bhi.n	26c0 <CANMessageSet+0x44>
    26b4:	687b      	ldr	r3, [r7, #4]
    26b6:	689b      	ldr	r3, [r3, #8]
    26b8:	f003 0304 	and.w	r3, r3, #4
    26bc:	2b00      	cmp	r3, #0
    26be:	d003      	beq.n	26c8 <CANMessageSet+0x4c>
    26c0:	f04f 0301 	mov.w	r3, #1
    26c4:	74bb      	strb	r3, [r7, #18]
    26c6:	e002      	b.n	26ce <CANMessageSet+0x52>
    26c8:	f04f 0300 	mov.w	r3, #0
    26cc:	74bb      	strb	r3, [r7, #18]
    26ce:	f04f 0393 	mov.w	r3, #147	; 0x93
    26d2:	83fb      	strh	r3, [r7, #30]
    26d4:	f04f 0300 	mov.w	r3, #0
    26d8:	833b      	strh	r3, [r7, #24]
    26da:	f04f 0300 	mov.w	r3, #0
    26de:	82fb      	strh	r3, [r7, #22]
    26e0:	f04f 0300 	mov.w	r3, #0
    26e4:	82bb      	strh	r3, [r7, #20]
    26e6:	f04f 0300 	mov.w	r3, #0
    26ea:	83bb      	strh	r3, [r7, #28]
    26ec:	f04f 0300 	mov.w	r3, #0
    26f0:	837b      	strh	r3, [r7, #26]
    26f2:	78fb      	ldrb	r3, [r7, #3]
    26f4:	2b04      	cmp	r3, #4
    26f6:	f200 8130 	bhi.w	295a <CANMessageSet+0x2de>
    26fa:	a201      	add	r2, pc, #4	; (adr r2, 2700 <CANMessageSet+0x84>)
    26fc:	f852 f023 	ldr.w	pc, [r2, r3, lsl #2]
    2700:	00002715 	.word	0x00002715
    2704:	0000272b 	.word	0x0000272b
    2708:	0000273b 	.word	0x0000273b
    270c:	00002743 	.word	0x00002743
    2710:	00002765 	.word	0x00002765
    2714:	8abb      	ldrh	r3, [r7, #20]
    2716:	f443 7380 	orr.w	r3, r3, #256	; 0x100
    271a:	82bb      	strh	r3, [r7, #20]
    271c:	f44f 5300 	mov.w	r3, #8192	; 0x2000
    2720:	82fb      	strh	r3, [r7, #22]
    2722:	f04f 0301 	mov.w	r3, #1
    2726:	74fb      	strb	r3, [r7, #19]
    2728:	e026      	b.n	2778 <CANMessageSet+0xfc>
    272a:	8abb      	ldrh	r3, [r7, #20]
    272c:	f443 7380 	orr.w	r3, r3, #256	; 0x100
    2730:	82bb      	strh	r3, [r7, #20]
    2732:	f04f 0300 	mov.w	r3, #0
    2736:	82fb      	strh	r3, [r7, #22]
    2738:	e01e      	b.n	2778 <CANMessageSet+0xfc>
    273a:	f04f 0300 	mov.w	r3, #0
    273e:	82fb      	strh	r3, [r7, #22]
    2740:	e01a      	b.n	2778 <CANMessageSet+0xfc>
    2742:	f44f 5300 	mov.w	r3, #8192	; 0x2000
    2746:	82fb      	strh	r3, [r7, #22]
    2748:	f44f 5380 	mov.w	r3, #4096	; 0x1000
    274c:	82bb      	strh	r3, [r7, #20]
    274e:	f64f 73ff 	movw	r3, #65535	; 0xffff
    2752:	83bb      	strh	r3, [r7, #28]
    2754:	f641 73ff 	movw	r3, #8191	; 0x1fff
    2758:	837b      	strh	r3, [r7, #26]
    275a:	8bfb      	ldrh	r3, [r7, #30]
    275c:	f043 0340 	orr.w	r3, r3, #64	; 0x40
    2760:	83fb      	strh	r3, [r7, #30]
    2762:	e009      	b.n	2778 <CANMessageSet+0xfc>
    2764:	f44f 5300 	mov.w	r3, #8192	; 0x2000
    2768:	82fb      	strh	r3, [r7, #22]
    276a:	f44f 5390 	mov.w	r3, #4608	; 0x1200
    276e:	82bb      	strh	r3, [r7, #20]
    2770:	f04f 0301 	mov.w	r3, #1
    2774:	74fb      	strb	r3, [r7, #19]
    2776:	bf00      	nop
    2778:	687b      	ldr	r3, [r7, #4]
    277a:	689b      	ldr	r3, [r3, #8]
    277c:	f003 0308 	and.w	r3, r3, #8
    2780:	2b00      	cmp	r3, #0
    2782:	d01e      	beq.n	27c2 <CANMessageSet+0x146>
    2784:	7cbb      	ldrb	r3, [r7, #18]
    2786:	2b00      	cmp	r3, #0
    2788:	d00d      	beq.n	27a6 <CANMessageSet+0x12a>
    278a:	687b      	ldr	r3, [r7, #4]
    278c:	685b      	ldr	r3, [r3, #4]
    278e:	83bb      	strh	r3, [r7, #28]
    2790:	687b      	ldr	r3, [r7, #4]
    2792:	685b      	ldr	r3, [r3, #4]
    2794:	ea4f 4313 	mov.w	r3, r3, lsr #16
    2798:	b29b      	uxth	r3, r3
    279a:	ea4f 43c3 	mov.w	r3, r3, lsl #19
    279e:	ea4f 43d3 	mov.w	r3, r3, lsr #19
    27a2:	837b      	strh	r3, [r7, #26]
    27a4:	e00d      	b.n	27c2 <CANMessageSet+0x146>
    27a6:	f04f 0300 	mov.w	r3, #0
    27aa:	83bb      	strh	r3, [r7, #28]
    27ac:	687b      	ldr	r3, [r7, #4]
    27ae:	685b      	ldr	r3, [r3, #4]
    27b0:	b29b      	uxth	r3, r3
    27b2:	ea4f 0383 	mov.w	r3, r3, lsl #2
    27b6:	b29b      	uxth	r3, r3
    27b8:	ea4f 43c3 	mov.w	r3, r3, lsl #19
    27bc:	ea4f 43d3 	mov.w	r3, r3, lsr #19
    27c0:	837b      	strh	r3, [r7, #26]
    27c2:	687b      	ldr	r3, [r7, #4]
    27c4:	689b      	ldr	r3, [r3, #8]
    27c6:	f003 0328 	and.w	r3, r3, #40	; 0x28
    27ca:	2b28      	cmp	r3, #40	; 0x28
    27cc:	d105      	bne.n	27da <CANMessageSet+0x15e>
    27ce:	8b7b      	ldrh	r3, [r7, #26]
    27d0:	ea6f 4343 	mvn.w	r3, r3, lsl #17
    27d4:	ea6f 4353 	mvn.w	r3, r3, lsr #17
    27d8:	837b      	strh	r3, [r7, #26]
    27da:	687b      	ldr	r3, [r7, #4]
    27dc:	689b      	ldr	r3, [r3, #8]
    27de:	f003 0318 	and.w	r3, r3, #24
    27e2:	2b18      	cmp	r3, #24
    27e4:	d103      	bne.n	27ee <CANMessageSet+0x172>
    27e6:	8b7b      	ldrh	r3, [r7, #26]
    27e8:	f443 4380 	orr.w	r3, r3, #16384	; 0x4000
    27ec:	837b      	strh	r3, [r7, #26]
    27ee:	687b      	ldr	r3, [r7, #4]
    27f0:	689b      	ldr	r3, [r3, #8]
    27f2:	f003 0338 	and.w	r3, r3, #56	; 0x38
    27f6:	2b00      	cmp	r3, #0
    27f8:	d007      	beq.n	280a <CANMessageSet+0x18e>
    27fa:	8abb      	ldrh	r3, [r7, #20]
    27fc:	f443 5380 	orr.w	r3, r3, #4096	; 0x1000
    2800:	82bb      	strh	r3, [r7, #20]
    2802:	8bfb      	ldrh	r3, [r7, #30]
    2804:	f043 0340 	orr.w	r3, r3, #64	; 0x40
    2808:	83fb      	strh	r3, [r7, #30]
    280a:	8bfb      	ldrh	r3, [r7, #30]
    280c:	f043 0320 	orr.w	r3, r3, #32
    2810:	83fb      	strh	r3, [r7, #30]
    2812:	7cbb      	ldrb	r3, [r7, #18]
    2814:	2b00      	cmp	r3, #0
    2816:	d019      	beq.n	284c <CANMessageSet+0x1d0>
    2818:	687b      	ldr	r3, [r7, #4]
    281a:	681b      	ldr	r3, [r3, #0]
    281c:	b29a      	uxth	r2, r3
    281e:	8b3b      	ldrh	r3, [r7, #24]
    2820:	4313      	orrs	r3, r2
    2822:	833b      	strh	r3, [r7, #24]
    2824:	687b      	ldr	r3, [r7, #4]
    2826:	681b      	ldr	r3, [r3, #0]
    2828:	ea4f 4313 	mov.w	r3, r3, lsr #16
    282c:	b29b      	uxth	r3, r3
    282e:	ea4f 43c3 	mov.w	r3, r3, lsl #19
    2832:	ea4f 43d3 	mov.w	r3, r3, lsr #19
    2836:	b29a      	uxth	r2, r3
    2838:	8afb      	ldrh	r3, [r7, #22]
    283a:	4313      	orrs	r3, r2
    283c:	82fb      	strh	r3, [r7, #22]
    283e:	8afb      	ldrh	r3, [r7, #22]
    2840:	ea6f 4383 	mvn.w	r3, r3, lsl #18
    2844:	ea6f 4393 	mvn.w	r3, r3, lsr #18
    2848:	82fb      	strh	r3, [r7, #22]
    284a:	e013      	b.n	2874 <CANMessageSet+0x1f8>
    284c:	687b      	ldr	r3, [r7, #4]
    284e:	681b      	ldr	r3, [r3, #0]
    2850:	b29b      	uxth	r3, r3
    2852:	ea4f 0383 	mov.w	r3, r3, lsl #2
    2856:	b29b      	uxth	r3, r3
    2858:	ea4f 43c3 	mov.w	r3, r3, lsl #19
    285c:	ea4f 43d3 	mov.w	r3, r3, lsr #19
    2860:	b29a      	uxth	r2, r3
    2862:	8afb      	ldrh	r3, [r7, #22]
    2864:	4313      	orrs	r3, r2
    2866:	82fb      	strh	r3, [r7, #22]
    2868:	8afb      	ldrh	r3, [r7, #22]
    286a:	ea6f 4343 	mvn.w	r3, r3, lsl #17
    286e:	ea6f 4353 	mvn.w	r3, r3, lsr #17
    2872:	82fb      	strh	r3, [r7, #22]
    2874:	687b      	ldr	r3, [r7, #4]
    2876:	68db      	ldr	r3, [r3, #12]
    2878:	b29b      	uxth	r3, r3
    287a:	f003 030f 	and.w	r3, r3, #15
    287e:	b29a      	uxth	r2, r3
    2880:	8abb      	ldrh	r3, [r7, #20]
    2882:	4313      	orrs	r3, r2
    2884:	82bb      	strh	r3, [r7, #20]
    2886:	687b      	ldr	r3, [r7, #4]
    2888:	689b      	ldr	r3, [r3, #8]
    288a:	f403 7300 	and.w	r3, r3, #512	; 0x200
    288e:	2b00      	cmp	r3, #0
    2890:	d103      	bne.n	289a <CANMessageSet+0x21e>
    2892:	8abb      	ldrh	r3, [r7, #20]
    2894:	f043 0380 	orr.w	r3, r3, #128	; 0x80
    2898:	82bb      	strh	r3, [r7, #20]
    289a:	687b      	ldr	r3, [r7, #4]
    289c:	689b      	ldr	r3, [r3, #8]
    289e:	f003 0301 	and.w	r3, r3, #1
    28a2:	b2db      	uxtb	r3, r3
    28a4:	2b00      	cmp	r3, #0
    28a6:	d003      	beq.n	28b0 <CANMessageSet+0x234>
    28a8:	8abb      	ldrh	r3, [r7, #20]
    28aa:	f443 6300 	orr.w	r3, r3, #2048	; 0x800
    28ae:	82bb      	strh	r3, [r7, #20]
    28b0:	687b      	ldr	r3, [r7, #4]
    28b2:	689b      	ldr	r3, [r3, #8]
    28b4:	f003 0302 	and.w	r3, r3, #2
    28b8:	2b00      	cmp	r3, #0
    28ba:	d003      	beq.n	28c4 <CANMessageSet+0x248>
    28bc:	8abb      	ldrh	r3, [r7, #20]
    28be:	f443 6380 	orr.w	r3, r3, #1024	; 0x400
    28c2:	82bb      	strh	r3, [r7, #20]
    28c4:	7cfb      	ldrb	r3, [r7, #19]
    28c6:	2b00      	cmp	r3, #0
    28c8:	d00c      	beq.n	28e4 <CANMessageSet+0x268>
    28ca:	687b      	ldr	r3, [r7, #4]
    28cc:	6919      	ldr	r1, [r3, #16]
    28ce:	68fb      	ldr	r3, [r7, #12]
    28d0:	f103 033c 	add.w	r3, r3, #60	; 0x3c
    28d4:	461a      	mov	r2, r3
    28d6:	687b      	ldr	r3, [r7, #4]
    28d8:	68db      	ldr	r3, [r3, #12]
    28da:	4608      	mov	r0, r1
    28dc:	4611      	mov	r1, r2
    28de:	461a      	mov	r2, r3
    28e0:	f7ff fd88 	bl	23f4 <CANDataRegWrite>
    28e4:	68fb      	ldr	r3, [r7, #12]
    28e6:	f103 0224 	add.w	r2, r3, #36	; 0x24
    28ea:	8bfb      	ldrh	r3, [r7, #30]
    28ec:	4610      	mov	r0, r2
    28ee:	4619      	mov	r1, r3
    28f0:	f7ff fd68 	bl	23c4 <CANRegWrite>
    28f4:	68fb      	ldr	r3, [r7, #12]
    28f6:	f103 0228 	add.w	r2, r3, #40	; 0x28
    28fa:	8bbb      	ldrh	r3, [r7, #28]
    28fc:	4610      	mov	r0, r2
    28fe:	4619      	mov	r1, r3
    2900:	f7ff fd60 	bl	23c4 <CANRegWrite>
    2904:	68fb      	ldr	r3, [r7, #12]
    2906:	f103 022c 	add.w	r2, r3, #44	; 0x2c
    290a:	8b7b      	ldrh	r3, [r7, #26]
    290c:	4610      	mov	r0, r2
    290e:	4619      	mov	r1, r3
    2910:	f7ff fd58 	bl	23c4 <CANRegWrite>
    2914:	68fb      	ldr	r3, [r7, #12]
    2916:	f103 0230 	add.w	r2, r3, #48	; 0x30
    291a:	8b3b      	ldrh	r3, [r7, #24]
    291c:	4610      	mov	r0, r2
    291e:	4619      	mov	r1, r3
    2920:	f7ff fd50 	bl	23c4 <CANRegWrite>
    2924:	68fb      	ldr	r3, [r7, #12]
    2926:	f103 0234 	add.w	r2, r3, #52	; 0x34
    292a:	8afb      	ldrh	r3, [r7, #22]
    292c:	4610      	mov	r0, r2
    292e:	4619      	mov	r1, r3
    2930:	f7ff fd48 	bl	23c4 <CANRegWrite>
    2934:	68fb      	ldr	r3, [r7, #12]
    2936:	f103 0238 	add.w	r2, r3, #56	; 0x38
    293a:	8abb      	ldrh	r3, [r7, #20]
    293c:	4610      	mov	r0, r2
    293e:	4619      	mov	r1, r3
    2940:	f7ff fd40 	bl	23c4 <CANRegWrite>
    2944:	68fb      	ldr	r3, [r7, #12]
    2946:	f103 0220 	add.w	r2, r3, #32
    294a:	68bb      	ldr	r3, [r7, #8]
    294c:	f003 033f 	and.w	r3, r3, #63	; 0x3f
    2950:	4610      	mov	r0, r2
    2952:	4619      	mov	r1, r3
    2954:	f7ff fd36 	bl	23c4 <CANRegWrite>
    2958:	e000      	b.n	295c <CANMessageSet+0x2e0>
    295a:	bf00      	nop
    295c:	f107 0720 	add.w	r7, r7, #32
    2960:	46bd      	mov	sp, r7
    2962:	bd80      	pop	{r7, pc}

00002964 <CANtest_task>:
    2964:	b580      	push	{r7, lr}
    2966:	b08a      	sub	sp, #40	; 0x28
    2968:	af00      	add	r7, sp, #0
    296a:	6078      	str	r0, [r7, #4]
    296c:	f646 139c 	movw	r3, #27036	; 0x699c
    2970:	f2c0 0300 	movt	r3, #0
    2974:	f107 020c 	add.w	r2, r7, #12
    2978:	e893 0003 	ldmia.w	r3, {r0, r1}
    297c:	e882 0003 	stmia.w	r2, {r0, r1}
    2980:	f04f 0008 	mov.w	r0, #8
    2984:	f2c2 0000 	movt	r0, #8192	; 0x2000
    2988:	f7ff f98e 	bl	1ca8 <SysCtlPeripheralEnable>
    298c:	f44f 7080 	mov.w	r0, #256	; 0x100
    2990:	f2c0 0010 	movt	r0, #16
    2994:	f7ff f988 	bl	1ca8 <SysCtlPeripheralEnable>
    2998:	f44f 40e0 	mov.w	r0, #28672	; 0x7000
    299c:	f2c4 0000 	movt	r0, #16384	; 0x4000
    29a0:	f04f 0103 	mov.w	r1, #3
    29a4:	f000 f998 	bl	2cd8 <GPIOPinTypeCAN>
    29a8:	f04f 0000 	mov.w	r0, #0
    29ac:	f2c4 0004 	movt	r0, #16388	; 0x4004
    29b0:	f7ff fd56 	bl	2460 <CANInit>
    29b4:	f04f 0000 	mov.w	r0, #0
    29b8:	f2c4 0004 	movt	r0, #16388	; 0x4004
    29bc:	f44f 5190 	mov.w	r1, #4608	; 0x1200
    29c0:	f2c0 017a 	movt	r1, #122	; 0x7a
    29c4:	f244 2240 	movw	r2, #16960	; 0x4240
    29c8:	f2c0 020f 	movt	r2, #15
    29cc:	f7ff fdd8 	bl	2580 <CANBitRateSet>
    29d0:	f04f 0000 	mov.w	r0, #0
    29d4:	f2c4 0004 	movt	r0, #16388	; 0x4004
    29d8:	f7ff fdc0 	bl	255c <CANEnable>
    29dc:	f240 4301 	movw	r3, #1025	; 0x401
    29e0:	617b      	str	r3, [r7, #20]
    29e2:	f04f 0300 	mov.w	r3, #0
    29e6:	61fb      	str	r3, [r7, #28]
    29e8:	f04f 0308 	mov.w	r3, #8
    29ec:	623b      	str	r3, [r7, #32]
    29ee:	f107 030c 	add.w	r3, r7, #12
    29f2:	627b      	str	r3, [r7, #36]	; 0x24
    29f4:	f107 0314 	add.w	r3, r7, #20
    29f8:	f04f 0000 	mov.w	r0, #0
    29fc:	f2c4 0004 	movt	r0, #16388	; 0x4004
    2a00:	f04f 0102 	mov.w	r1, #2
    2a04:	461a      	mov	r2, r3
    2a06:	f04f 0300 	mov.w	r3, #0
    2a0a:	f7ff fe37 	bl	267c <CANMessageSet>
    2a0e:	f04f 0064 	mov.w	r0, #100	; 0x64
    2a12:	f000 faf1 	bl	2ff8 <vTaskDelay>
    2a16:	f44f 707a 	mov.w	r0, #1000	; 0x3e8
    2a1a:	f000 faed 	bl	2ff8 <vTaskDelay>
    2a1e:	e7fa      	b.n	2a16 <CANtest_task+0xb2>

00002a20 <GPIODirModeSet>:
    2a20:	b480      	push	{r7}
    2a22:	b085      	sub	sp, #20
    2a24:	af00      	add	r7, sp, #0
    2a26:	60f8      	str	r0, [r7, #12]
    2a28:	460b      	mov	r3, r1
    2a2a:	607a      	str	r2, [r7, #4]
    2a2c:	72fb      	strb	r3, [r7, #11]
    2a2e:	68fb      	ldr	r3, [r7, #12]
    2a30:	f503 6380 	add.w	r3, r3, #1024	; 0x400
    2a34:	461a      	mov	r2, r3
    2a36:	687b      	ldr	r3, [r7, #4]
    2a38:	f003 0301 	and.w	r3, r3, #1
    2a3c:	b2db      	uxtb	r3, r3
    2a3e:	2b00      	cmp	r3, #0
    2a40:	d006      	beq.n	2a50 <GPIODirModeSet+0x30>
    2a42:	68fb      	ldr	r3, [r7, #12]
    2a44:	f503 6380 	add.w	r3, r3, #1024	; 0x400
    2a48:	6819      	ldr	r1, [r3, #0]
    2a4a:	7afb      	ldrb	r3, [r7, #11]
    2a4c:	430b      	orrs	r3, r1
    2a4e:	e007      	b.n	2a60 <GPIODirModeSet+0x40>
    2a50:	68fb      	ldr	r3, [r7, #12]
    2a52:	f503 6380 	add.w	r3, r3, #1024	; 0x400
    2a56:	6819      	ldr	r1, [r3, #0]
    2a58:	7afb      	ldrb	r3, [r7, #11]
    2a5a:	ea6f 0303 	mvn.w	r3, r3
    2a5e:	400b      	ands	r3, r1
    2a60:	6013      	str	r3, [r2, #0]
    2a62:	68fb      	ldr	r3, [r7, #12]
    2a64:	f503 6384 	add.w	r3, r3, #1056	; 0x420
    2a68:	461a      	mov	r2, r3
    2a6a:	687b      	ldr	r3, [r7, #4]
    2a6c:	f003 0302 	and.w	r3, r3, #2
    2a70:	2b00      	cmp	r3, #0
    2a72:	d006      	beq.n	2a82 <GPIODirModeSet+0x62>
    2a74:	68fb      	ldr	r3, [r7, #12]
    2a76:	f503 6384 	add.w	r3, r3, #1056	; 0x420
    2a7a:	6819      	ldr	r1, [r3, #0]
    2a7c:	7afb      	ldrb	r3, [r7, #11]
    2a7e:	430b      	orrs	r3, r1
    2a80:	e007      	b.n	2a92 <GPIODirModeSet+0x72>
    2a82:	68fb      	ldr	r3, [r7, #12]
    2a84:	f503 6384 	add.w	r3, r3, #1056	; 0x420
    2a88:	6819      	ldr	r1, [r3, #0]
    2a8a:	7afb      	ldrb	r3, [r7, #11]
    2a8c:	ea6f 0303 	mvn.w	r3, r3
    2a90:	400b      	ands	r3, r1
    2a92:	6013      	str	r3, [r2, #0]
    2a94:	f107 0714 	add.w	r7, r7, #20
    2a98:	46bd      	mov	sp, r7
    2a9a:	bc80      	pop	{r7}
    2a9c:	4770      	bx	lr
    2a9e:	bf00      	nop

00002aa0 <GPIOPadConfigSet>:
    2aa0:	b480      	push	{r7}
    2aa2:	b085      	sub	sp, #20
    2aa4:	af00      	add	r7, sp, #0
    2aa6:	60f8      	str	r0, [r7, #12]
    2aa8:	607a      	str	r2, [r7, #4]
    2aaa:	603b      	str	r3, [r7, #0]
    2aac:	460b      	mov	r3, r1
    2aae:	72fb      	strb	r3, [r7, #11]
    2ab0:	68fb      	ldr	r3, [r7, #12]
    2ab2:	f503 63a0 	add.w	r3, r3, #1280	; 0x500
    2ab6:	461a      	mov	r2, r3
    2ab8:	687b      	ldr	r3, [r7, #4]
    2aba:	f003 0301 	and.w	r3, r3, #1
    2abe:	b2db      	uxtb	r3, r3
    2ac0:	2b00      	cmp	r3, #0
    2ac2:	d006      	beq.n	2ad2 <GPIOPadConfigSet+0x32>
    2ac4:	68fb      	ldr	r3, [r7, #12]
    2ac6:	f503 63a0 	add.w	r3, r3, #1280	; 0x500
    2aca:	6819      	ldr	r1, [r3, #0]
    2acc:	7afb      	ldrb	r3, [r7, #11]
    2ace:	430b      	orrs	r3, r1
    2ad0:	e007      	b.n	2ae2 <GPIOPadConfigSet+0x42>
    2ad2:	68fb      	ldr	r3, [r7, #12]
    2ad4:	f503 63a0 	add.w	r3, r3, #1280	; 0x500
    2ad8:	6819      	ldr	r1, [r3, #0]
    2ada:	7afb      	ldrb	r3, [r7, #11]
    2adc:	ea6f 0303 	mvn.w	r3, r3
    2ae0:	400b      	ands	r3, r1
    2ae2:	6013      	str	r3, [r2, #0]
    2ae4:	68fb      	ldr	r3, [r7, #12]
    2ae6:	f503 63a0 	add.w	r3, r3, #1280	; 0x500
    2aea:	f103 0304 	add.w	r3, r3, #4
    2aee:	461a      	mov	r2, r3
    2af0:	687b      	ldr	r3, [r7, #4]
    2af2:	f003 0302 	and.w	r3, r3, #2
    2af6:	2b00      	cmp	r3, #0
    2af8:	d008      	beq.n	2b0c <GPIOPadConfigSet+0x6c>
    2afa:	68fb      	ldr	r3, [r7, #12]
    2afc:	f503 63a0 	add.w	r3, r3, #1280	; 0x500
    2b00:	f103 0304 	add.w	r3, r3, #4
    2b04:	6819      	ldr	r1, [r3, #0]
    2b06:	7afb      	ldrb	r3, [r7, #11]
    2b08:	430b      	orrs	r3, r1
    2b0a:	e009      	b.n	2b20 <GPIOPadConfigSet+0x80>
    2b0c:	68fb      	ldr	r3, [r7, #12]
    2b0e:	f503 63a0 	add.w	r3, r3, #1280	; 0x500
    2b12:	f103 0304 	add.w	r3, r3, #4
    2b16:	6819      	ldr	r1, [r3, #0]
    2b18:	7afb      	ldrb	r3, [r7, #11]
    2b1a:	ea6f 0303 	mvn.w	r3, r3
    2b1e:	400b      	ands	r3, r1
    2b20:	6013      	str	r3, [r2, #0]
    2b22:	68fb      	ldr	r3, [r7, #12]
    2b24:	f503 63a1 	add.w	r3, r3, #1288	; 0x508
    2b28:	461a      	mov	r2, r3
    2b2a:	687b      	ldr	r3, [r7, #4]
    2b2c:	f003 0304 	and.w	r3, r3, #4
    2b30:	2b00      	cmp	r3, #0
    2b32:	d006      	beq.n	2b42 <GPIOPadConfigSet+0xa2>
    2b34:	68fb      	ldr	r3, [r7, #12]
    2b36:	f503 63a1 	add.w	r3, r3, #1288	; 0x508
    2b3a:	6819      	ldr	r1, [r3, #0]
    2b3c:	7afb      	ldrb	r3, [r7, #11]
    2b3e:	430b      	orrs	r3, r1
    2b40:	e007      	b.n	2b52 <GPIOPadConfigSet+0xb2>
    2b42:	68fb      	ldr	r3, [r7, #12]
    2b44:	f503 63a1 	add.w	r3, r3, #1288	; 0x508
    2b48:	6819      	ldr	r1, [r3, #0]
    2b4a:	7afb      	ldrb	r3, [r7, #11]
    2b4c:	ea6f 0303 	mvn.w	r3, r3
    2b50:	400b      	ands	r3, r1
    2b52:	6013      	str	r3, [r2, #0]
    2b54:	68fb      	ldr	r3, [r7, #12]
    2b56:	f503 63a3 	add.w	r3, r3, #1304	; 0x518
    2b5a:	461a      	mov	r2, r3
    2b5c:	687b      	ldr	r3, [r7, #4]
    2b5e:	f003 0308 	and.w	r3, r3, #8
    2b62:	2b00      	cmp	r3, #0
    2b64:	d006      	beq.n	2b74 <GPIOPadConfigSet+0xd4>
    2b66:	68fb      	ldr	r3, [r7, #12]
    2b68:	f503 63a3 	add.w	r3, r3, #1304	; 0x518
    2b6c:	6819      	ldr	r1, [r3, #0]
    2b6e:	7afb      	ldrb	r3, [r7, #11]
    2b70:	430b      	orrs	r3, r1
    2b72:	e007      	b.n	2b84 <GPIOPadConfigSet+0xe4>
    2b74:	68fb      	ldr	r3, [r7, #12]
    2b76:	f503 63a3 	add.w	r3, r3, #1304	; 0x518
    2b7a:	6819      	ldr	r1, [r3, #0]
    2b7c:	7afb      	ldrb	r3, [r7, #11]
    2b7e:	ea6f 0303 	mvn.w	r3, r3
    2b82:	400b      	ands	r3, r1
    2b84:	6013      	str	r3, [r2, #0]
    2b86:	68fb      	ldr	r3, [r7, #12]
    2b88:	f503 63a0 	add.w	r3, r3, #1280	; 0x500
    2b8c:	f103 030c 	add.w	r3, r3, #12
    2b90:	461a      	mov	r2, r3
    2b92:	683b      	ldr	r3, [r7, #0]
    2b94:	f003 0301 	and.w	r3, r3, #1
    2b98:	b2db      	uxtb	r3, r3
    2b9a:	2b00      	cmp	r3, #0
    2b9c:	d008      	beq.n	2bb0 <GPIOPadConfigSet+0x110>
    2b9e:	68fb      	ldr	r3, [r7, #12]
    2ba0:	f503 63a0 	add.w	r3, r3, #1280	; 0x500
    2ba4:	f103 030c 	add.w	r3, r3, #12
    2ba8:	6819      	ldr	r1, [r3, #0]
    2baa:	7afb      	ldrb	r3, [r7, #11]
    2bac:	430b      	orrs	r3, r1
    2bae:	e009      	b.n	2bc4 <GPIOPadConfigSet+0x124>
    2bb0:	68fb      	ldr	r3, [r7, #12]
    2bb2:	f503 63a0 	add.w	r3, r3, #1280	; 0x500
    2bb6:	f103 030c 	add.w	r3, r3, #12
    2bba:	6819      	ldr	r1, [r3, #0]
    2bbc:	7afb      	ldrb	r3, [r7, #11]
    2bbe:	ea6f 0303 	mvn.w	r3, r3
    2bc2:	400b      	ands	r3, r1
    2bc4:	6013      	str	r3, [r2, #0]
    2bc6:	68fb      	ldr	r3, [r7, #12]
    2bc8:	f503 63a2 	add.w	r3, r3, #1296	; 0x510
    2bcc:	461a      	mov	r2, r3
    2bce:	683b      	ldr	r3, [r7, #0]
    2bd0:	f003 0302 	and.w	r3, r3, #2
    2bd4:	2b00      	cmp	r3, #0
    2bd6:	d006      	beq.n	2be6 <GPIOPadConfigSet+0x146>
    2bd8:	68fb      	ldr	r3, [r7, #12]
    2bda:	f503 63a2 	add.w	r3, r3, #1296	; 0x510
    2bde:	6819      	ldr	r1, [r3, #0]
    2be0:	7afb      	ldrb	r3, [r7, #11]
    2be2:	430b      	orrs	r3, r1
    2be4:	e007      	b.n	2bf6 <GPIOPadConfigSet+0x156>
    2be6:	68fb      	ldr	r3, [r7, #12]
    2be8:	f503 63a2 	add.w	r3, r3, #1296	; 0x510
    2bec:	6819      	ldr	r1, [r3, #0]
    2bee:	7afb      	ldrb	r3, [r7, #11]
    2bf0:	ea6f 0303 	mvn.w	r3, r3
    2bf4:	400b      	ands	r3, r1
    2bf6:	6013      	str	r3, [r2, #0]
    2bf8:	68fb      	ldr	r3, [r7, #12]
    2bfa:	f503 63a2 	add.w	r3, r3, #1296	; 0x510
    2bfe:	f103 0304 	add.w	r3, r3, #4
    2c02:	461a      	mov	r2, r3
    2c04:	683b      	ldr	r3, [r7, #0]
    2c06:	f003 0304 	and.w	r3, r3, #4
    2c0a:	2b00      	cmp	r3, #0
    2c0c:	d008      	beq.n	2c20 <GPIOPadConfigSet+0x180>
    2c0e:	68fb      	ldr	r3, [r7, #12]
    2c10:	f503 63a2 	add.w	r3, r3, #1296	; 0x510
    2c14:	f103 0304 	add.w	r3, r3, #4
    2c18:	6819      	ldr	r1, [r3, #0]
    2c1a:	7afb      	ldrb	r3, [r7, #11]
    2c1c:	430b      	orrs	r3, r1
    2c1e:	e009      	b.n	2c34 <GPIOPadConfigSet+0x194>
    2c20:	68fb      	ldr	r3, [r7, #12]
    2c22:	f503 63a2 	add.w	r3, r3, #1296	; 0x510
    2c26:	f103 0304 	add.w	r3, r3, #4
    2c2a:	6819      	ldr	r1, [r3, #0]
    2c2c:	7afb      	ldrb	r3, [r7, #11]
    2c2e:	ea6f 0303 	mvn.w	r3, r3
    2c32:	400b      	ands	r3, r1
    2c34:	6013      	str	r3, [r2, #0]
    2c36:	68fb      	ldr	r3, [r7, #12]
    2c38:	f503 63a2 	add.w	r3, r3, #1296	; 0x510
    2c3c:	f103 030c 	add.w	r3, r3, #12
    2c40:	461a      	mov	r2, r3
    2c42:	683b      	ldr	r3, [r7, #0]
    2c44:	f003 0308 	and.w	r3, r3, #8
    2c48:	2b00      	cmp	r3, #0
    2c4a:	d008      	beq.n	2c5e <GPIOPadConfigSet+0x1be>
    2c4c:	68fb      	ldr	r3, [r7, #12]
    2c4e:	f503 63a2 	add.w	r3, r3, #1296	; 0x510
    2c52:	f103 030c 	add.w	r3, r3, #12
    2c56:	6819      	ldr	r1, [r3, #0]
    2c58:	7afb      	ldrb	r3, [r7, #11]
    2c5a:	430b      	orrs	r3, r1
    2c5c:	e009      	b.n	2c72 <GPIOPadConfigSet+0x1d2>
    2c5e:	68fb      	ldr	r3, [r7, #12]
    2c60:	f503 63a2 	add.w	r3, r3, #1296	; 0x510
    2c64:	f103 030c 	add.w	r3, r3, #12
    2c68:	6819      	ldr	r1, [r3, #0]
    2c6a:	7afb      	ldrb	r3, [r7, #11]
    2c6c:	ea6f 0303 	mvn.w	r3, r3
    2c70:	400b      	ands	r3, r1
    2c72:	6013      	str	r3, [r2, #0]
    2c74:	68fb      	ldr	r3, [r7, #12]
    2c76:	f503 63a5 	add.w	r3, r3, #1320	; 0x528
    2c7a:	461a      	mov	r2, r3
    2c7c:	683b      	ldr	r3, [r7, #0]
    2c7e:	2b00      	cmp	r3, #0
    2c80:	d106      	bne.n	2c90 <GPIOPadConfigSet+0x1f0>
    2c82:	68fb      	ldr	r3, [r7, #12]
    2c84:	f503 63a5 	add.w	r3, r3, #1320	; 0x528
    2c88:	6819      	ldr	r1, [r3, #0]
    2c8a:	7afb      	ldrb	r3, [r7, #11]
    2c8c:	430b      	orrs	r3, r1
    2c8e:	e007      	b.n	2ca0 <GPIOPadConfigSet+0x200>
    2c90:	68fb      	ldr	r3, [r7, #12]
    2c92:	f503 63a5 	add.w	r3, r3, #1320	; 0x528
    2c96:	6819      	ldr	r1, [r3, #0]
    2c98:	7afb      	ldrb	r3, [r7, #11]
    2c9a:	ea6f 0303 	mvn.w	r3, r3
    2c9e:	400b      	ands	r3, r1
    2ca0:	6013      	str	r3, [r2, #0]
    2ca2:	f107 0714 	add.w	r7, r7, #20
    2ca6:	46bd      	mov	sp, r7
    2ca8:	bc80      	pop	{r7}
    2caa:	4770      	bx	lr

00002cac <GPIOPinWrite>:
    2cac:	b480      	push	{r7}
    2cae:	b083      	sub	sp, #12
    2cb0:	af00      	add	r7, sp, #0
    2cb2:	6078      	str	r0, [r7, #4]
    2cb4:	4613      	mov	r3, r2
    2cb6:	460a      	mov	r2, r1
    2cb8:	70fa      	strb	r2, [r7, #3]
    2cba:	70bb      	strb	r3, [r7, #2]
    2cbc:	78fb      	ldrb	r3, [r7, #3]
    2cbe:	ea4f 0383 	mov.w	r3, r3, lsl #2
    2cc2:	461a      	mov	r2, r3
    2cc4:	687b      	ldr	r3, [r7, #4]
    2cc6:	18d3      	adds	r3, r2, r3
    2cc8:	78ba      	ldrb	r2, [r7, #2]
    2cca:	601a      	str	r2, [r3, #0]
    2ccc:	f107 070c 	add.w	r7, r7, #12
    2cd0:	46bd      	mov	sp, r7
    2cd2:	bc80      	pop	{r7}
    2cd4:	4770      	bx	lr
    2cd6:	bf00      	nop

00002cd8 <GPIOPinTypeCAN>:
    2cd8:	b580      	push	{r7, lr}
    2cda:	b082      	sub	sp, #8
    2cdc:	af00      	add	r7, sp, #0
    2cde:	6078      	str	r0, [r7, #4]
    2ce0:	460b      	mov	r3, r1
    2ce2:	70fb      	strb	r3, [r7, #3]
    2ce4:	78fb      	ldrb	r3, [r7, #3]
    2ce6:	6878      	ldr	r0, [r7, #4]
    2ce8:	4619      	mov	r1, r3
    2cea:	f04f 0202 	mov.w	r2, #2
    2cee:	f7ff fe97 	bl	2a20 <GPIODirModeSet>
    2cf2:	78fb      	ldrb	r3, [r7, #3]
    2cf4:	6878      	ldr	r0, [r7, #4]
    2cf6:	4619      	mov	r1, r3
    2cf8:	f04f 0204 	mov.w	r2, #4
    2cfc:	f04f 0308 	mov.w	r3, #8
    2d00:	f7ff fece 	bl	2aa0 <GPIOPadConfigSet>
    2d04:	f107 0708 	add.w	r7, r7, #8
    2d08:	46bd      	mov	sp, r7
    2d0a:	bd80      	pop	{r7, pc}

00002d0c <GPIOPinTypeGPIOOutput>:
    2d0c:	b580      	push	{r7, lr}
    2d0e:	b082      	sub	sp, #8
    2d10:	af00      	add	r7, sp, #0
    2d12:	6078      	str	r0, [r7, #4]
    2d14:	460b      	mov	r3, r1
    2d16:	70fb      	strb	r3, [r7, #3]
    2d18:	78fb      	ldrb	r3, [r7, #3]
    2d1a:	6878      	ldr	r0, [r7, #4]
    2d1c:	4619      	mov	r1, r3
    2d1e:	f04f 0201 	mov.w	r2, #1
    2d22:	f04f 0308 	mov.w	r3, #8
    2d26:	f7ff febb 	bl	2aa0 <GPIOPadConfigSet>
    2d2a:	78fb      	ldrb	r3, [r7, #3]
    2d2c:	6878      	ldr	r0, [r7, #4]
    2d2e:	4619      	mov	r1, r3
    2d30:	f04f 0201 	mov.w	r2, #1
    2d34:	f7ff fe74 	bl	2a20 <GPIODirModeSet>
    2d38:	f107 0708 	add.w	r7, r7, #8
    2d3c:	46bd      	mov	sp, r7
    2d3e:	bd80      	pop	{r7, pc}

00002d40 <GPIOPinTypeI2C>:
    2d40:	b580      	push	{r7, lr}
    2d42:	b082      	sub	sp, #8
    2d44:	af00      	add	r7, sp, #0
    2d46:	6078      	str	r0, [r7, #4]
    2d48:	460b      	mov	r3, r1
    2d4a:	70fb      	strb	r3, [r7, #3]
    2d4c:	78fb      	ldrb	r3, [r7, #3]
    2d4e:	6878      	ldr	r0, [r7, #4]
    2d50:	4619      	mov	r1, r3
    2d52:	f04f 0202 	mov.w	r2, #2
    2d56:	f7ff fe63 	bl	2a20 <GPIODirModeSet>
    2d5a:	78fb      	ldrb	r3, [r7, #3]
    2d5c:	6878      	ldr	r0, [r7, #4]
    2d5e:	4619      	mov	r1, r3
    2d60:	f04f 0201 	mov.w	r2, #1
    2d64:	f04f 030b 	mov.w	r3, #11
    2d68:	f7ff fe9a 	bl	2aa0 <GPIOPadConfigSet>
    2d6c:	f107 0708 	add.w	r7, r7, #8
    2d70:	46bd      	mov	sp, r7
    2d72:	bd80      	pop	{r7, pc}

00002d74 <GPIOPinTypePWM>:
    2d74:	b580      	push	{r7, lr}
    2d76:	b082      	sub	sp, #8
    2d78:	af00      	add	r7, sp, #0
    2d7a:	6078      	str	r0, [r7, #4]
    2d7c:	460b      	mov	r3, r1
    2d7e:	70fb      	strb	r3, [r7, #3]
    2d80:	78fb      	ldrb	r3, [r7, #3]
    2d82:	6878      	ldr	r0, [r7, #4]
    2d84:	4619      	mov	r1, r3
    2d86:	f04f 0202 	mov.w	r2, #2
    2d8a:	f7ff fe49 	bl	2a20 <GPIODirModeSet>
    2d8e:	78fb      	ldrb	r3, [r7, #3]
    2d90:	6878      	ldr	r0, [r7, #4]
    2d92:	4619      	mov	r1, r3
    2d94:	f04f 0201 	mov.w	r2, #1
    2d98:	f04f 0308 	mov.w	r3, #8
    2d9c:	f7ff fe80 	bl	2aa0 <GPIOPadConfigSet>
    2da0:	f107 0708 	add.w	r7, r7, #8
    2da4:	46bd      	mov	sp, r7
    2da6:	bd80      	pop	{r7, pc}

00002da8 <GPIOPinTypeQEI>:
    2da8:	b580      	push	{r7, lr}
    2daa:	b082      	sub	sp, #8
    2dac:	af00      	add	r7, sp, #0
    2dae:	6078      	str	r0, [r7, #4]
    2db0:	460b      	mov	r3, r1
    2db2:	70fb      	strb	r3, [r7, #3]
    2db4:	78fb      	ldrb	r3, [r7, #3]
    2db6:	6878      	ldr	r0, [r7, #4]
    2db8:	4619      	mov	r1, r3
    2dba:	f04f 0202 	mov.w	r2, #2
    2dbe:	f7ff fe2f 	bl	2a20 <GPIODirModeSet>
    2dc2:	78fb      	ldrb	r3, [r7, #3]
    2dc4:	6878      	ldr	r0, [r7, #4]
    2dc6:	4619      	mov	r1, r3
    2dc8:	f04f 0201 	mov.w	r2, #1
    2dcc:	f04f 030a 	mov.w	r3, #10
    2dd0:	f7ff fe66 	bl	2aa0 <GPIOPadConfigSet>
    2dd4:	f107 0708 	add.w	r7, r7, #8
    2dd8:	46bd      	mov	sp, r7
    2dda:	bd80      	pop	{r7, pc}

00002ddc <GPIOPinTypeUART>:
    2ddc:	b580      	push	{r7, lr}
    2dde:	b082      	sub	sp, #8
    2de0:	af00      	add	r7, sp, #0
    2de2:	6078      	str	r0, [r7, #4]
    2de4:	460b      	mov	r3, r1
    2de6:	70fb      	strb	r3, [r7, #3]
    2de8:	78fb      	ldrb	r3, [r7, #3]
    2dea:	6878      	ldr	r0, [r7, #4]
    2dec:	4619      	mov	r1, r3
    2dee:	f04f 0202 	mov.w	r2, #2
    2df2:	f7ff fe15 	bl	2a20 <GPIODirModeSet>
    2df6:	78fb      	ldrb	r3, [r7, #3]
    2df8:	6878      	ldr	r0, [r7, #4]
    2dfa:	4619      	mov	r1, r3
    2dfc:	f04f 0201 	mov.w	r2, #1
    2e00:	f04f 0308 	mov.w	r3, #8
    2e04:	f7ff fe4c 	bl	2aa0 <GPIOPadConfigSet>
    2e08:	f107 0708 	add.w	r7, r7, #8
    2e0c:	46bd      	mov	sp, r7
    2e0e:	bd80      	pop	{r7, pc}

00002e10 <xTaskGenericCreate>:
    2e10:	b580      	push	{r7, lr}
    2e12:	b08a      	sub	sp, #40	; 0x28
    2e14:	af02      	add	r7, sp, #8
    2e16:	60f8      	str	r0, [r7, #12]
    2e18:	60b9      	str	r1, [r7, #8]
    2e1a:	603b      	str	r3, [r7, #0]
    2e1c:	4613      	mov	r3, r2
    2e1e:	80fb      	strh	r3, [r7, #6]
    2e20:	68fb      	ldr	r3, [r7, #12]
    2e22:	2b00      	cmp	r3, #0
    2e24:	d102      	bne.n	2e2c <xTaskGenericCreate+0x1c>
    2e26:	f002 fb65 	bl	54f4 <ulPortSetInterruptMask>
    2e2a:	e7fe      	b.n	2e2a <xTaskGenericCreate+0x1a>
    2e2c:	6abb      	ldr	r3, [r7, #40]	; 0x28
    2e2e:	2b0f      	cmp	r3, #15
    2e30:	d902      	bls.n	2e38 <xTaskGenericCreate+0x28>
    2e32:	f002 fb5f 	bl	54f4 <ulPortSetInterruptMask>
    2e36:	e7fe      	b.n	2e36 <xTaskGenericCreate+0x26>
    2e38:	88fb      	ldrh	r3, [r7, #6]
    2e3a:	4618      	mov	r0, r3
    2e3c:	6b39      	ldr	r1, [r7, #48]	; 0x30
    2e3e:	f000 fdd9 	bl	39f4 <prvAllocateTCBAndStack>
    2e42:	4603      	mov	r3, r0
    2e44:	61bb      	str	r3, [r7, #24]
    2e46:	69bb      	ldr	r3, [r7, #24]
    2e48:	2b00      	cmp	r3, #0
    2e4a:	f000 80b6 	beq.w	2fba <xTaskGenericCreate+0x1aa>
    2e4e:	69bb      	ldr	r3, [r7, #24]
    2e50:	6b1a      	ldr	r2, [r3, #48]	; 0x30
    2e52:	88fb      	ldrh	r3, [r7, #6]
    2e54:	f103 33ff 	add.w	r3, r3, #4294967295
    2e58:	ea4f 0383 	mov.w	r3, r3, lsl #2
    2e5c:	18d3      	adds	r3, r2, r3
    2e5e:	617b      	str	r3, [r7, #20]
    2e60:	697b      	ldr	r3, [r7, #20]
    2e62:	f023 0307 	bic.w	r3, r3, #7
    2e66:	617b      	str	r3, [r7, #20]
    2e68:	697b      	ldr	r3, [r7, #20]
    2e6a:	f003 0307 	and.w	r3, r3, #7
    2e6e:	2b00      	cmp	r3, #0
    2e70:	d002      	beq.n	2e78 <xTaskGenericCreate+0x68>
    2e72:	f002 fb3f 	bl	54f4 <ulPortSetInterruptMask>
    2e76:	e7fe      	b.n	2e76 <xTaskGenericCreate+0x66>
    2e78:	88fb      	ldrh	r3, [r7, #6]
    2e7a:	9300      	str	r3, [sp, #0]
    2e7c:	69b8      	ldr	r0, [r7, #24]
    2e7e:	68b9      	ldr	r1, [r7, #8]
    2e80:	6aba      	ldr	r2, [r7, #40]	; 0x28
    2e82:	6b7b      	ldr	r3, [r7, #52]	; 0x34
    2e84:	f000 fc9c 	bl	37c0 <prvInitialiseTCBVariables>
    2e88:	6978      	ldr	r0, [r7, #20]
    2e8a:	68f9      	ldr	r1, [r7, #12]
    2e8c:	683a      	ldr	r2, [r7, #0]
    2e8e:	f002 fa85 	bl	539c <pxPortInitialiseStack>
    2e92:	4602      	mov	r2, r0
    2e94:	69bb      	ldr	r3, [r7, #24]
    2e96:	601a      	str	r2, [r3, #0]
    2e98:	69bb      	ldr	r3, [r7, #24]
    2e9a:	681b      	ldr	r3, [r3, #0]
    2e9c:	f003 0307 	and.w	r3, r3, #7
    2ea0:	2b00      	cmp	r3, #0
    2ea2:	d002      	beq.n	2eaa <xTaskGenericCreate+0x9a>
    2ea4:	f002 fb26 	bl	54f4 <ulPortSetInterruptMask>
    2ea8:	e7fe      	b.n	2ea8 <xTaskGenericCreate+0x98>
    2eaa:	6afb      	ldr	r3, [r7, #44]	; 0x2c
    2eac:	2b00      	cmp	r3, #0
    2eae:	d002      	beq.n	2eb6 <xTaskGenericCreate+0xa6>
    2eb0:	6afb      	ldr	r3, [r7, #44]	; 0x2c
    2eb2:	69ba      	ldr	r2, [r7, #24]
    2eb4:	601a      	str	r2, [r3, #0]
    2eb6:	f002 faf1 	bl	549c <vPortEnterCritical>
    2eba:	f240 13c8 	movw	r3, #456	; 0x1c8
    2ebe:	f2c2 0300 	movt	r3, #8192	; 0x2000
    2ec2:	681b      	ldr	r3, [r3, #0]
    2ec4:	f103 0201 	add.w	r2, r3, #1
    2ec8:	f240 13c8 	movw	r3, #456	; 0x1c8
    2ecc:	f2c2 0300 	movt	r3, #8192	; 0x2000
    2ed0:	601a      	str	r2, [r3, #0]
    2ed2:	f240 0328 	movw	r3, #40	; 0x28
    2ed6:	f2c2 0300 	movt	r3, #8192	; 0x2000
    2eda:	681b      	ldr	r3, [r3, #0]
    2edc:	2b00      	cmp	r3, #0
    2ede:	d10f      	bne.n	2f00 <xTaskGenericCreate+0xf0>
    2ee0:	f240 0328 	movw	r3, #40	; 0x28
    2ee4:	f2c2 0300 	movt	r3, #8192	; 0x2000
    2ee8:	69ba      	ldr	r2, [r7, #24]
    2eea:	601a      	str	r2, [r3, #0]
    2eec:	f240 13c8 	movw	r3, #456	; 0x1c8
    2ef0:	f2c2 0300 	movt	r3, #8192	; 0x2000
    2ef4:	681b      	ldr	r3, [r3, #0]
    2ef6:	2b01      	cmp	r3, #1
    2ef8:	d118      	bne.n	2f2c <xTaskGenericCreate+0x11c>
    2efa:	f000 fc9d 	bl	3838 <prvInitialiseTaskLists>
    2efe:	e015      	b.n	2f2c <xTaskGenericCreate+0x11c>
    2f00:	f240 13d8 	movw	r3, #472	; 0x1d8
    2f04:	f2c2 0300 	movt	r3, #8192	; 0x2000
    2f08:	681b      	ldr	r3, [r3, #0]
    2f0a:	2b00      	cmp	r3, #0
    2f0c:	d10e      	bne.n	2f2c <xTaskGenericCreate+0x11c>
    2f0e:	f240 0328 	movw	r3, #40	; 0x28
    2f12:	f2c2 0300 	movt	r3, #8192	; 0x2000
    2f16:	681b      	ldr	r3, [r3, #0]
    2f18:	6ada      	ldr	r2, [r3, #44]	; 0x2c
    2f1a:	6abb      	ldr	r3, [r7, #40]	; 0x28
    2f1c:	429a      	cmp	r2, r3
    2f1e:	d805      	bhi.n	2f2c <xTaskGenericCreate+0x11c>
    2f20:	f240 0328 	movw	r3, #40	; 0x28
    2f24:	f2c2 0300 	movt	r3, #8192	; 0x2000
    2f28:	69ba      	ldr	r2, [r7, #24]
    2f2a:	601a      	str	r2, [r3, #0]
    2f2c:	69bb      	ldr	r3, [r7, #24]
    2f2e:	6ada      	ldr	r2, [r3, #44]	; 0x2c
    2f30:	f240 13d0 	movw	r3, #464	; 0x1d0
    2f34:	f2c2 0300 	movt	r3, #8192	; 0x2000
    2f38:	681b      	ldr	r3, [r3, #0]
    2f3a:	429a      	cmp	r2, r3
    2f3c:	d906      	bls.n	2f4c <xTaskGenericCreate+0x13c>
    2f3e:	69bb      	ldr	r3, [r7, #24]
    2f40:	6ada      	ldr	r2, [r3, #44]	; 0x2c
    2f42:	f240 13d0 	movw	r3, #464	; 0x1d0
    2f46:	f2c2 0300 	movt	r3, #8192	; 0x2000
    2f4a:	601a      	str	r2, [r3, #0]
    2f4c:	f240 13ec 	movw	r3, #492	; 0x1ec
    2f50:	f2c2 0300 	movt	r3, #8192	; 0x2000
    2f54:	681b      	ldr	r3, [r3, #0]
    2f56:	f103 0201 	add.w	r2, r3, #1
    2f5a:	f240 13ec 	movw	r3, #492	; 0x1ec
    2f5e:	f2c2 0300 	movt	r3, #8192	; 0x2000
    2f62:	601a      	str	r2, [r3, #0]
    2f64:	69bb      	ldr	r3, [r7, #24]
    2f66:	6ada      	ldr	r2, [r3, #44]	; 0x2c
    2f68:	f240 13d4 	movw	r3, #468	; 0x1d4
    2f6c:	f2c2 0300 	movt	r3, #8192	; 0x2000
    2f70:	681b      	ldr	r3, [r3, #0]
    2f72:	429a      	cmp	r2, r3
    2f74:	d906      	bls.n	2f84 <xTaskGenericCreate+0x174>
    2f76:	69bb      	ldr	r3, [r7, #24]
    2f78:	6ada      	ldr	r2, [r3, #44]	; 0x2c
    2f7a:	f240 13d4 	movw	r3, #468	; 0x1d4
    2f7e:	f2c2 0300 	movt	r3, #8192	; 0x2000
    2f82:	601a      	str	r2, [r3, #0]
    2f84:	69bb      	ldr	r3, [r7, #24]
    2f86:	6ada      	ldr	r2, [r3, #44]	; 0x2c
    2f88:	4613      	mov	r3, r2
    2f8a:	ea4f 0383 	mov.w	r3, r3, lsl #2
    2f8e:	189b      	adds	r3, r3, r2
    2f90:	ea4f 0383 	mov.w	r3, r3, lsl #2
    2f94:	461a      	mov	r2, r3
    2f96:	f240 032c 	movw	r3, #44	; 0x2c
    2f9a:	f2c2 0300 	movt	r3, #8192	; 0x2000
    2f9e:	18d2      	adds	r2, r2, r3
    2fa0:	69bb      	ldr	r3, [r7, #24]
    2fa2:	f103 0304 	add.w	r3, r3, #4
    2fa6:	4610      	mov	r0, r2
    2fa8:	4619      	mov	r1, r3
    2faa:	f000 ffad 	bl	3f08 <vListInsertEnd>
    2fae:	f04f 0301 	mov.w	r3, #1
    2fb2:	61fb      	str	r3, [r7, #28]
    2fb4:	f002 fa84 	bl	54c0 <vPortExitCritical>
    2fb8:	e002      	b.n	2fc0 <xTaskGenericCreate+0x1b0>
    2fba:	f04f 33ff 	mov.w	r3, #4294967295
    2fbe:	61fb      	str	r3, [r7, #28]
    2fc0:	69fb      	ldr	r3, [r7, #28]
    2fc2:	2b01      	cmp	r3, #1
    2fc4:	d111      	bne.n	2fea <xTaskGenericCreate+0x1da>
    2fc6:	f240 13d8 	movw	r3, #472	; 0x1d8
    2fca:	f2c2 0300 	movt	r3, #8192	; 0x2000
    2fce:	681b      	ldr	r3, [r3, #0]
    2fd0:	2b00      	cmp	r3, #0
    2fd2:	d00a      	beq.n	2fea <xTaskGenericCreate+0x1da>
    2fd4:	f240 0328 	movw	r3, #40	; 0x28
    2fd8:	f2c2 0300 	movt	r3, #8192	; 0x2000
    2fdc:	681b      	ldr	r3, [r3, #0]
    2fde:	6ada      	ldr	r2, [r3, #44]	; 0x2c
    2fe0:	6abb      	ldr	r3, [r7, #40]	; 0x28
    2fe2:	429a      	cmp	r2, r3
    2fe4:	d201      	bcs.n	2fea <xTaskGenericCreate+0x1da>
    2fe6:	f002 fa4d 	bl	5484 <vPortYieldFromISR>
    2fea:	69fb      	ldr	r3, [r7, #28]
    2fec:	4618      	mov	r0, r3
    2fee:	f107 0720 	add.w	r7, r7, #32
    2ff2:	46bd      	mov	sp, r7
    2ff4:	bd80      	pop	{r7, pc}
    2ff6:	bf00      	nop

00002ff8 <vTaskDelay>:
    2ff8:	b580      	push	{r7, lr}
    2ffa:	b084      	sub	sp, #16
    2ffc:	af00      	add	r7, sp, #0
    2ffe:	6078      	str	r0, [r7, #4]
    3000:	f04f 0300 	mov.w	r3, #0
    3004:	60fb      	str	r3, [r7, #12]
    3006:	687b      	ldr	r3, [r7, #4]
    3008:	2b00      	cmp	r3, #0
    300a:	d01a      	beq.n	3042 <vTaskDelay+0x4a>
    300c:	f000 f860 	bl	30d0 <vTaskSuspendAll>
    3010:	f240 13cc 	movw	r3, #460	; 0x1cc
    3014:	f2c2 0300 	movt	r3, #8192	; 0x2000
    3018:	681a      	ldr	r2, [r3, #0]
    301a:	687b      	ldr	r3, [r7, #4]
    301c:	18d3      	adds	r3, r2, r3
    301e:	60bb      	str	r3, [r7, #8]
    3020:	f240 0328 	movw	r3, #40	; 0x28
    3024:	f2c2 0300 	movt	r3, #8192	; 0x2000
    3028:	681b      	ldr	r3, [r3, #0]
    302a:	f103 0304 	add.w	r3, r3, #4
    302e:	4618      	mov	r0, r3
    3030:	f000 ffd0 	bl	3fd4 <uxListRemove>
    3034:	68b8      	ldr	r0, [r7, #8]
    3036:	f000 fc97 	bl	3968 <prvAddCurrentTaskToDelayedList>
    303a:	f000 f85b 	bl	30f4 <xTaskResumeAll>
    303e:	4603      	mov	r3, r0
    3040:	60fb      	str	r3, [r7, #12]
    3042:	68fb      	ldr	r3, [r7, #12]
    3044:	2b00      	cmp	r3, #0
    3046:	d101      	bne.n	304c <vTaskDelay+0x54>
    3048:	f002 fa1c 	bl	5484 <vPortYieldFromISR>
    304c:	f107 0710 	add.w	r7, r7, #16
    3050:	46bd      	mov	sp, r7
    3052:	bd80      	pop	{r7, pc}

00003054 <vTaskStartScheduler>:
    3054:	b580      	push	{r7, lr}
    3056:	b086      	sub	sp, #24
    3058:	af04      	add	r7, sp, #16
    305a:	f04f 0300 	mov.w	r3, #0
    305e:	9300      	str	r3, [sp, #0]
    3060:	f04f 0300 	mov.w	r3, #0
    3064:	9301      	str	r3, [sp, #4]
    3066:	f04f 0300 	mov.w	r3, #0
    306a:	9302      	str	r3, [sp, #8]
    306c:	f04f 0300 	mov.w	r3, #0
    3070:	9303      	str	r3, [sp, #12]
    3072:	f243 70b1 	movw	r0, #14257	; 0x37b1
    3076:	f2c0 0000 	movt	r0, #0
    307a:	f646 11a8 	movw	r1, #27048	; 0x69a8
    307e:	f2c0 0100 	movt	r1, #0
    3082:	f04f 0280 	mov.w	r2, #128	; 0x80
    3086:	f04f 0300 	mov.w	r3, #0
    308a:	f7ff fec1 	bl	2e10 <xTaskGenericCreate>
    308e:	4603      	mov	r3, r0
    3090:	607b      	str	r3, [r7, #4]
    3092:	687b      	ldr	r3, [r7, #4]
    3094:	2b01      	cmp	r3, #1
    3096:	d111      	bne.n	30bc <vTaskStartScheduler+0x68>
    3098:	f002 fa2c 	bl	54f4 <ulPortSetInterruptMask>
    309c:	f240 13d8 	movw	r3, #472	; 0x1d8
    30a0:	f2c2 0300 	movt	r3, #8192	; 0x2000
    30a4:	f04f 0201 	mov.w	r2, #1
    30a8:	601a      	str	r2, [r3, #0]
    30aa:	f240 13cc 	movw	r3, #460	; 0x1cc
    30ae:	f2c2 0300 	movt	r3, #8192	; 0x2000
    30b2:	f04f 0200 	mov.w	r2, #0
    30b6:	601a      	str	r2, [r3, #0]
    30b8:	f002 f9ba 	bl	5430 <xPortStartScheduler>
    30bc:	687b      	ldr	r3, [r7, #4]
    30be:	2b00      	cmp	r3, #0
    30c0:	d102      	bne.n	30c8 <vTaskStartScheduler+0x74>
    30c2:	f002 fa17 	bl	54f4 <ulPortSetInterruptMask>
    30c6:	e7fe      	b.n	30c6 <vTaskStartScheduler+0x72>
    30c8:	f107 0708 	add.w	r7, r7, #8
    30cc:	46bd      	mov	sp, r7
    30ce:	bd80      	pop	{r7, pc}

000030d0 <vTaskSuspendAll>:
    30d0:	b480      	push	{r7}
    30d2:	af00      	add	r7, sp, #0
    30d4:	f240 13dc 	movw	r3, #476	; 0x1dc
    30d8:	f2c2 0300 	movt	r3, #8192	; 0x2000
    30dc:	681b      	ldr	r3, [r3, #0]
    30de:	f103 0201 	add.w	r2, r3, #1
    30e2:	f240 13dc 	movw	r3, #476	; 0x1dc
    30e6:	f2c2 0300 	movt	r3, #8192	; 0x2000
    30ea:	601a      	str	r2, [r3, #0]
    30ec:	46bd      	mov	sp, r7
    30ee:	bc80      	pop	{r7}
    30f0:	4770      	bx	lr
    30f2:	bf00      	nop

000030f4 <xTaskResumeAll>:
    30f4:	b590      	push	{r4, r7, lr}
    30f6:	b083      	sub	sp, #12
    30f8:	af00      	add	r7, sp, #0
    30fa:	f04f 0300 	mov.w	r3, #0
    30fe:	607b      	str	r3, [r7, #4]
    3100:	f240 13dc 	movw	r3, #476	; 0x1dc
    3104:	f2c2 0300 	movt	r3, #8192	; 0x2000
    3108:	681b      	ldr	r3, [r3, #0]
    310a:	2b00      	cmp	r3, #0
    310c:	d102      	bne.n	3114 <xTaskResumeAll+0x20>
    310e:	f002 f9f1 	bl	54f4 <ulPortSetInterruptMask>
    3112:	e7fe      	b.n	3112 <xTaskResumeAll+0x1e>
    3114:	f002 f9c2 	bl	549c <vPortEnterCritical>
    3118:	f240 13dc 	movw	r3, #476	; 0x1dc
    311c:	f2c2 0300 	movt	r3, #8192	; 0x2000
    3120:	681b      	ldr	r3, [r3, #0]
    3122:	f103 32ff 	add.w	r2, r3, #4294967295
    3126:	f240 13dc 	movw	r3, #476	; 0x1dc
    312a:	f2c2 0300 	movt	r3, #8192	; 0x2000
    312e:	601a      	str	r2, [r3, #0]
    3130:	f240 13dc 	movw	r3, #476	; 0x1dc
    3134:	f2c2 0300 	movt	r3, #8192	; 0x2000
    3138:	681b      	ldr	r3, [r3, #0]
    313a:	2b00      	cmp	r3, #0
    313c:	f040 8086 	bne.w	324c <xTaskResumeAll+0x158>
    3140:	f240 13c8 	movw	r3, #456	; 0x1c8
    3144:	f2c2 0300 	movt	r3, #8192	; 0x2000
    3148:	681b      	ldr	r3, [r3, #0]
    314a:	2b00      	cmp	r3, #0
    314c:	d07e      	beq.n	324c <xTaskResumeAll+0x158>
    314e:	f04f 0300 	mov.w	r3, #0
    3152:	603b      	str	r3, [r7, #0]
    3154:	e03d      	b.n	31d2 <xTaskResumeAll+0xde>
    3156:	f240 139c 	movw	r3, #412	; 0x19c
    315a:	f2c2 0300 	movt	r3, #8192	; 0x2000
    315e:	68db      	ldr	r3, [r3, #12]
    3160:	68db      	ldr	r3, [r3, #12]
    3162:	461c      	mov	r4, r3
    3164:	f104 0318 	add.w	r3, r4, #24
    3168:	4618      	mov	r0, r3
    316a:	f000 ff33 	bl	3fd4 <uxListRemove>
    316e:	f104 0304 	add.w	r3, r4, #4
    3172:	4618      	mov	r0, r3
    3174:	f000 ff2e 	bl	3fd4 <uxListRemove>
    3178:	6ae2      	ldr	r2, [r4, #44]	; 0x2c
    317a:	f240 13d4 	movw	r3, #468	; 0x1d4
    317e:	f2c2 0300 	movt	r3, #8192	; 0x2000
    3182:	681b      	ldr	r3, [r3, #0]
    3184:	429a      	cmp	r2, r3
    3186:	d905      	bls.n	3194 <xTaskResumeAll+0xa0>
    3188:	6ae2      	ldr	r2, [r4, #44]	; 0x2c
    318a:	f240 13d4 	movw	r3, #468	; 0x1d4
    318e:	f2c2 0300 	movt	r3, #8192	; 0x2000
    3192:	601a      	str	r2, [r3, #0]
    3194:	6ae2      	ldr	r2, [r4, #44]	; 0x2c
    3196:	4613      	mov	r3, r2
    3198:	ea4f 0383 	mov.w	r3, r3, lsl #2
    319c:	189b      	adds	r3, r3, r2
    319e:	ea4f 0383 	mov.w	r3, r3, lsl #2
    31a2:	461a      	mov	r2, r3
    31a4:	f240 032c 	movw	r3, #44	; 0x2c
    31a8:	f2c2 0300 	movt	r3, #8192	; 0x2000
    31ac:	18d2      	adds	r2, r2, r3
    31ae:	f104 0304 	add.w	r3, r4, #4
    31b2:	4610      	mov	r0, r2
    31b4:	4619      	mov	r1, r3
    31b6:	f000 fea7 	bl	3f08 <vListInsertEnd>
    31ba:	6ae2      	ldr	r2, [r4, #44]	; 0x2c
    31bc:	f240 0328 	movw	r3, #40	; 0x28
    31c0:	f2c2 0300 	movt	r3, #8192	; 0x2000
    31c4:	681b      	ldr	r3, [r3, #0]
    31c6:	6adb      	ldr	r3, [r3, #44]	; 0x2c
    31c8:	429a      	cmp	r2, r3
    31ca:	d302      	bcc.n	31d2 <xTaskResumeAll+0xde>
    31cc:	f04f 0301 	mov.w	r3, #1
    31d0:	603b      	str	r3, [r7, #0]
    31d2:	f240 139c 	movw	r3, #412	; 0x19c
    31d6:	f2c2 0300 	movt	r3, #8192	; 0x2000
    31da:	681b      	ldr	r3, [r3, #0]
    31dc:	2b00      	cmp	r3, #0
    31de:	d1ba      	bne.n	3156 <xTaskResumeAll+0x62>
    31e0:	f240 13e0 	movw	r3, #480	; 0x1e0
    31e4:	f2c2 0300 	movt	r3, #8192	; 0x2000
    31e8:	681b      	ldr	r3, [r3, #0]
    31ea:	2b00      	cmp	r3, #0
    31ec:	d018      	beq.n	3220 <xTaskResumeAll+0x12c>
    31ee:	e00d      	b.n	320c <xTaskResumeAll+0x118>
    31f0:	f000 f834 	bl	325c <vTaskIncrementTick>
    31f4:	f240 13e0 	movw	r3, #480	; 0x1e0
    31f8:	f2c2 0300 	movt	r3, #8192	; 0x2000
    31fc:	681b      	ldr	r3, [r3, #0]
    31fe:	f103 32ff 	add.w	r2, r3, #4294967295
    3202:	f240 13e0 	movw	r3, #480	; 0x1e0
    3206:	f2c2 0300 	movt	r3, #8192	; 0x2000
    320a:	601a      	str	r2, [r3, #0]
    320c:	f240 13e0 	movw	r3, #480	; 0x1e0
    3210:	f2c2 0300 	movt	r3, #8192	; 0x2000
    3214:	681b      	ldr	r3, [r3, #0]
    3216:	2b00      	cmp	r3, #0
    3218:	d1ea      	bne.n	31f0 <xTaskResumeAll+0xfc>
    321a:	f04f 0301 	mov.w	r3, #1
    321e:	603b      	str	r3, [r7, #0]
    3220:	683b      	ldr	r3, [r7, #0]
    3222:	2b01      	cmp	r3, #1
    3224:	d006      	beq.n	3234 <xTaskResumeAll+0x140>
    3226:	f240 13e4 	movw	r3, #484	; 0x1e4
    322a:	f2c2 0300 	movt	r3, #8192	; 0x2000
    322e:	681b      	ldr	r3, [r3, #0]
    3230:	2b01      	cmp	r3, #1
    3232:	d10b      	bne.n	324c <xTaskResumeAll+0x158>
    3234:	f04f 0301 	mov.w	r3, #1
    3238:	607b      	str	r3, [r7, #4]
    323a:	f240 13e4 	movw	r3, #484	; 0x1e4
    323e:	f2c2 0300 	movt	r3, #8192	; 0x2000
    3242:	f04f 0200 	mov.w	r2, #0
    3246:	601a      	str	r2, [r3, #0]
    3248:	f002 f91c 	bl	5484 <vPortYieldFromISR>
    324c:	f002 f938 	bl	54c0 <vPortExitCritical>
    3250:	687b      	ldr	r3, [r7, #4]
    3252:	4618      	mov	r0, r3
    3254:	f107 070c 	add.w	r7, r7, #12
    3258:	46bd      	mov	sp, r7
    325a:	bd90      	pop	{r4, r7, pc}

0000325c <vTaskIncrementTick>:
    325c:	b580      	push	{r7, lr}
    325e:	b084      	sub	sp, #16
    3260:	af00      	add	r7, sp, #0
    3262:	f240 13dc 	movw	r3, #476	; 0x1dc
    3266:	f2c2 0300 	movt	r3, #8192	; 0x2000
    326a:	681b      	ldr	r3, [r3, #0]
    326c:	2b00      	cmp	r3, #0
    326e:	f040 80cb 	bne.w	3408 <vTaskIncrementTick+0x1ac>
    3272:	f240 13cc 	movw	r3, #460	; 0x1cc
    3276:	f2c2 0300 	movt	r3, #8192	; 0x2000
    327a:	681b      	ldr	r3, [r3, #0]
    327c:	f103 0201 	add.w	r2, r3, #1
    3280:	f240 13cc 	movw	r3, #460	; 0x1cc
    3284:	f2c2 0300 	movt	r3, #8192	; 0x2000
    3288:	601a      	str	r2, [r3, #0]
    328a:	f240 13cc 	movw	r3, #460	; 0x1cc
    328e:	f2c2 0300 	movt	r3, #8192	; 0x2000
    3292:	681b      	ldr	r3, [r3, #0]
    3294:	2b00      	cmp	r3, #0
    3296:	d14b      	bne.n	3330 <vTaskIncrementTick+0xd4>
    3298:	f240 1394 	movw	r3, #404	; 0x194
    329c:	f2c2 0300 	movt	r3, #8192	; 0x2000
    32a0:	681b      	ldr	r3, [r3, #0]
    32a2:	681b      	ldr	r3, [r3, #0]
    32a4:	2b00      	cmp	r3, #0
    32a6:	d002      	beq.n	32ae <vTaskIncrementTick+0x52>
    32a8:	f002 f924 	bl	54f4 <ulPortSetInterruptMask>
    32ac:	e7fe      	b.n	32ac <vTaskIncrementTick+0x50>
    32ae:	f240 1394 	movw	r3, #404	; 0x194
    32b2:	f2c2 0300 	movt	r3, #8192	; 0x2000
    32b6:	681b      	ldr	r3, [r3, #0]
    32b8:	60fb      	str	r3, [r7, #12]
    32ba:	f240 1398 	movw	r3, #408	; 0x198
    32be:	f2c2 0300 	movt	r3, #8192	; 0x2000
    32c2:	681a      	ldr	r2, [r3, #0]
    32c4:	f240 1394 	movw	r3, #404	; 0x194
    32c8:	f2c2 0300 	movt	r3, #8192	; 0x2000
    32cc:	601a      	str	r2, [r3, #0]
    32ce:	f240 1398 	movw	r3, #408	; 0x198
    32d2:	f2c2 0300 	movt	r3, #8192	; 0x2000
    32d6:	68fa      	ldr	r2, [r7, #12]
    32d8:	601a      	str	r2, [r3, #0]
    32da:	f240 13e8 	movw	r3, #488	; 0x1e8
    32de:	f2c2 0300 	movt	r3, #8192	; 0x2000
    32e2:	681b      	ldr	r3, [r3, #0]
    32e4:	f103 0201 	add.w	r2, r3, #1
    32e8:	f240 13e8 	movw	r3, #488	; 0x1e8
    32ec:	f2c2 0300 	movt	r3, #8192	; 0x2000
    32f0:	601a      	str	r2, [r3, #0]
    32f2:	f240 1394 	movw	r3, #404	; 0x194
    32f6:	f2c2 0300 	movt	r3, #8192	; 0x2000
    32fa:	681b      	ldr	r3, [r3, #0]
    32fc:	681b      	ldr	r3, [r3, #0]
    32fe:	2b00      	cmp	r3, #0
    3300:	d107      	bne.n	3312 <vTaskIncrementTick+0xb6>
    3302:	f240 0304 	movw	r3, #4
    3306:	f2c2 0300 	movt	r3, #8192	; 0x2000
    330a:	f04f 32ff 	mov.w	r2, #4294967295
    330e:	601a      	str	r2, [r3, #0]
    3310:	e00e      	b.n	3330 <vTaskIncrementTick+0xd4>
    3312:	f240 1394 	movw	r3, #404	; 0x194
    3316:	f2c2 0300 	movt	r3, #8192	; 0x2000
    331a:	681b      	ldr	r3, [r3, #0]
    331c:	68db      	ldr	r3, [r3, #12]
    331e:	68db      	ldr	r3, [r3, #12]
    3320:	60bb      	str	r3, [r7, #8]
    3322:	68bb      	ldr	r3, [r7, #8]
    3324:	685a      	ldr	r2, [r3, #4]
    3326:	f240 0304 	movw	r3, #4
    332a:	f2c2 0300 	movt	r3, #8192	; 0x2000
    332e:	601a      	str	r2, [r3, #0]
    3330:	f240 13cc 	movw	r3, #460	; 0x1cc
    3334:	f2c2 0300 	movt	r3, #8192	; 0x2000
    3338:	681a      	ldr	r2, [r3, #0]
    333a:	f240 0304 	movw	r3, #4
    333e:	f2c2 0300 	movt	r3, #8192	; 0x2000
    3342:	681b      	ldr	r3, [r3, #0]
    3344:	429a      	cmp	r2, r3
    3346:	d36b      	bcc.n	3420 <vTaskIncrementTick+0x1c4>
    3348:	f240 1394 	movw	r3, #404	; 0x194
    334c:	f2c2 0300 	movt	r3, #8192	; 0x2000
    3350:	681b      	ldr	r3, [r3, #0]
    3352:	681b      	ldr	r3, [r3, #0]
    3354:	2b00      	cmp	r3, #0
    3356:	d107      	bne.n	3368 <vTaskIncrementTick+0x10c>
    3358:	f240 0304 	movw	r3, #4
    335c:	f2c2 0300 	movt	r3, #8192	; 0x2000
    3360:	f04f 32ff 	mov.w	r2, #4294967295
    3364:	601a      	str	r2, [r3, #0]
    3366:	e05b      	b.n	3420 <vTaskIncrementTick+0x1c4>
    3368:	f240 1394 	movw	r3, #404	; 0x194
    336c:	f2c2 0300 	movt	r3, #8192	; 0x2000
    3370:	681b      	ldr	r3, [r3, #0]
    3372:	68db      	ldr	r3, [r3, #12]
    3374:	68db      	ldr	r3, [r3, #12]
    3376:	60bb      	str	r3, [r7, #8]
    3378:	68bb      	ldr	r3, [r7, #8]
    337a:	685b      	ldr	r3, [r3, #4]
    337c:	607b      	str	r3, [r7, #4]
    337e:	f240 13cc 	movw	r3, #460	; 0x1cc
    3382:	f2c2 0300 	movt	r3, #8192	; 0x2000
    3386:	681a      	ldr	r2, [r3, #0]
    3388:	687b      	ldr	r3, [r7, #4]
    338a:	429a      	cmp	r2, r3
    338c:	d206      	bcs.n	339c <vTaskIncrementTick+0x140>
    338e:	f240 0304 	movw	r3, #4
    3392:	f2c2 0300 	movt	r3, #8192	; 0x2000
    3396:	687a      	ldr	r2, [r7, #4]
    3398:	601a      	str	r2, [r3, #0]
    339a:	e041      	b.n	3420 <vTaskIncrementTick+0x1c4>
    339c:	68bb      	ldr	r3, [r7, #8]
    339e:	f103 0304 	add.w	r3, r3, #4
    33a2:	4618      	mov	r0, r3
    33a4:	f000 fe16 	bl	3fd4 <uxListRemove>
    33a8:	68bb      	ldr	r3, [r7, #8]
    33aa:	6a9b      	ldr	r3, [r3, #40]	; 0x28
    33ac:	2b00      	cmp	r3, #0
    33ae:	d005      	beq.n	33bc <vTaskIncrementTick+0x160>
    33b0:	68bb      	ldr	r3, [r7, #8]
    33b2:	f103 0318 	add.w	r3, r3, #24
    33b6:	4618      	mov	r0, r3
    33b8:	f000 fe0c 	bl	3fd4 <uxListRemove>
    33bc:	68bb      	ldr	r3, [r7, #8]
    33be:	6ada      	ldr	r2, [r3, #44]	; 0x2c
    33c0:	f240 13d4 	movw	r3, #468	; 0x1d4
    33c4:	f2c2 0300 	movt	r3, #8192	; 0x2000
    33c8:	681b      	ldr	r3, [r3, #0]
    33ca:	429a      	cmp	r2, r3
    33cc:	d906      	bls.n	33dc <vTaskIncrementTick+0x180>
    33ce:	68bb      	ldr	r3, [r7, #8]
    33d0:	6ada      	ldr	r2, [r3, #44]	; 0x2c
    33d2:	f240 13d4 	movw	r3, #468	; 0x1d4
    33d6:	f2c2 0300 	movt	r3, #8192	; 0x2000
    33da:	601a      	str	r2, [r3, #0]
    33dc:	68bb      	ldr	r3, [r7, #8]
    33de:	6ada      	ldr	r2, [r3, #44]	; 0x2c
    33e0:	4613      	mov	r3, r2
    33e2:	ea4f 0383 	mov.w	r3, r3, lsl #2
    33e6:	189b      	adds	r3, r3, r2
    33e8:	ea4f 0383 	mov.w	r3, r3, lsl #2
    33ec:	461a      	mov	r2, r3
    33ee:	f240 032c 	movw	r3, #44	; 0x2c
    33f2:	f2c2 0300 	movt	r3, #8192	; 0x2000
    33f6:	18d2      	adds	r2, r2, r3
    33f8:	68bb      	ldr	r3, [r7, #8]
    33fa:	f103 0304 	add.w	r3, r3, #4
    33fe:	4610      	mov	r0, r2
    3400:	4619      	mov	r1, r3
    3402:	f000 fd81 	bl	3f08 <vListInsertEnd>
    3406:	e79f      	b.n	3348 <vTaskIncrementTick+0xec>
    3408:	f240 13e0 	movw	r3, #480	; 0x1e0
    340c:	f2c2 0300 	movt	r3, #8192	; 0x2000
    3410:	681b      	ldr	r3, [r3, #0]
    3412:	f103 0201 	add.w	r2, r3, #1
    3416:	f240 13e0 	movw	r3, #480	; 0x1e0
    341a:	f2c2 0300 	movt	r3, #8192	; 0x2000
    341e:	601a      	str	r2, [r3, #0]
    3420:	f107 0710 	add.w	r7, r7, #16
    3424:	46bd      	mov	sp, r7
    3426:	bd80      	pop	{r7, pc}

00003428 <vTaskSwitchContext>:
    3428:	b580      	push	{r7, lr}
    342a:	b082      	sub	sp, #8
    342c:	af00      	add	r7, sp, #0
    342e:	f240 13dc 	movw	r3, #476	; 0x1dc
    3432:	f2c2 0300 	movt	r3, #8192	; 0x2000
    3436:	681b      	ldr	r3, [r3, #0]
    3438:	2b00      	cmp	r3, #0
    343a:	d007      	beq.n	344c <vTaskSwitchContext+0x24>
    343c:	f240 13e4 	movw	r3, #484	; 0x1e4
    3440:	f2c2 0300 	movt	r3, #8192	; 0x2000
    3444:	f04f 0201 	mov.w	r2, #1
    3448:	601a      	str	r2, [r3, #0]
    344a:	e098      	b.n	357e <vTaskSwitchContext+0x156>
    344c:	f240 0328 	movw	r3, #40	; 0x28
    3450:	f2c2 0300 	movt	r3, #8192	; 0x2000
    3454:	681b      	ldr	r3, [r3, #0]
    3456:	681a      	ldr	r2, [r3, #0]
    3458:	f240 0328 	movw	r3, #40	; 0x28
    345c:	f2c2 0300 	movt	r3, #8192	; 0x2000
    3460:	681b      	ldr	r3, [r3, #0]
    3462:	6b1b      	ldr	r3, [r3, #48]	; 0x30
    3464:	429a      	cmp	r2, r3
    3466:	d80f      	bhi.n	3488 <vTaskSwitchContext+0x60>
    3468:	f240 0328 	movw	r3, #40	; 0x28
    346c:	f2c2 0300 	movt	r3, #8192	; 0x2000
    3470:	681a      	ldr	r2, [r3, #0]
    3472:	f240 0328 	movw	r3, #40	; 0x28
    3476:	f2c2 0300 	movt	r3, #8192	; 0x2000
    347a:	681b      	ldr	r3, [r3, #0]
    347c:	f103 0334 	add.w	r3, r3, #52	; 0x34
    3480:	4610      	mov	r0, r2
    3482:	4619      	mov	r1, r3
    3484:	f7fd fe66 	bl	1154 <vApplicationStackOverflowHook>
    3488:	f240 0328 	movw	r3, #40	; 0x28
    348c:	f2c2 0300 	movt	r3, #8192	; 0x2000
    3490:	681b      	ldr	r3, [r3, #0]
    3492:	6b1b      	ldr	r3, [r3, #48]	; 0x30
    3494:	4618      	mov	r0, r3
    3496:	f646 11b0 	movw	r1, #27056	; 0x69b0
    349a:	f2c0 0100 	movt	r1, #0
    349e:	f04f 0214 	mov.w	r2, #20
    34a2:	f003 f921 	bl	66e8 <memcmp>
    34a6:	4603      	mov	r3, r0
    34a8:	2b00      	cmp	r3, #0
    34aa:	d026      	beq.n	34fa <vTaskSwitchContext+0xd2>
    34ac:	f240 0328 	movw	r3, #40	; 0x28
    34b0:	f2c2 0300 	movt	r3, #8192	; 0x2000
    34b4:	681a      	ldr	r2, [r3, #0]
    34b6:	f240 0328 	movw	r3, #40	; 0x28
    34ba:	f2c2 0300 	movt	r3, #8192	; 0x2000
    34be:	681b      	ldr	r3, [r3, #0]
    34c0:	f103 0334 	add.w	r3, r3, #52	; 0x34
    34c4:	4610      	mov	r0, r2
    34c6:	4619      	mov	r1, r3
    34c8:	f7fd fe44 	bl	1154 <vApplicationStackOverflowHook>
    34cc:	e015      	b.n	34fa <vTaskSwitchContext+0xd2>
    34ce:	f240 13d4 	movw	r3, #468	; 0x1d4
    34d2:	f2c2 0300 	movt	r3, #8192	; 0x2000
    34d6:	681b      	ldr	r3, [r3, #0]
    34d8:	2b00      	cmp	r3, #0
    34da:	d102      	bne.n	34e2 <vTaskSwitchContext+0xba>
    34dc:	f002 f80a 	bl	54f4 <ulPortSetInterruptMask>
    34e0:	e7fe      	b.n	34e0 <vTaskSwitchContext+0xb8>
    34e2:	f240 13d4 	movw	r3, #468	; 0x1d4
    34e6:	f2c2 0300 	movt	r3, #8192	; 0x2000
    34ea:	681b      	ldr	r3, [r3, #0]
    34ec:	f103 32ff 	add.w	r2, r3, #4294967295
    34f0:	f240 13d4 	movw	r3, #468	; 0x1d4
    34f4:	f2c2 0300 	movt	r3, #8192	; 0x2000
    34f8:	601a      	str	r2, [r3, #0]
    34fa:	f240 13d4 	movw	r3, #468	; 0x1d4
    34fe:	f2c2 0300 	movt	r3, #8192	; 0x2000
    3502:	681a      	ldr	r2, [r3, #0]
    3504:	4613      	mov	r3, r2
    3506:	ea4f 0383 	mov.w	r3, r3, lsl #2
    350a:	189b      	adds	r3, r3, r2
    350c:	ea4f 0383 	mov.w	r3, r3, lsl #2
    3510:	461a      	mov	r2, r3
    3512:	f240 032c 	movw	r3, #44	; 0x2c
    3516:	f2c2 0300 	movt	r3, #8192	; 0x2000
    351a:	18d3      	adds	r3, r2, r3
    351c:	681b      	ldr	r3, [r3, #0]
    351e:	2b00      	cmp	r3, #0
    3520:	d0d5      	beq.n	34ce <vTaskSwitchContext+0xa6>
    3522:	f240 13d4 	movw	r3, #468	; 0x1d4
    3526:	f2c2 0300 	movt	r3, #8192	; 0x2000
    352a:	681a      	ldr	r2, [r3, #0]
    352c:	4613      	mov	r3, r2
    352e:	ea4f 0383 	mov.w	r3, r3, lsl #2
    3532:	189b      	adds	r3, r3, r2
    3534:	ea4f 0383 	mov.w	r3, r3, lsl #2
    3538:	461a      	mov	r2, r3
    353a:	f240 032c 	movw	r3, #44	; 0x2c
    353e:	f2c2 0300 	movt	r3, #8192	; 0x2000
    3542:	18d3      	adds	r3, r2, r3
    3544:	607b      	str	r3, [r7, #4]
    3546:	687b      	ldr	r3, [r7, #4]
    3548:	685b      	ldr	r3, [r3, #4]
    354a:	685b      	ldr	r3, [r3, #4]
    354c:	461a      	mov	r2, r3
    354e:	687b      	ldr	r3, [r7, #4]
    3550:	605a      	str	r2, [r3, #4]
    3552:	687b      	ldr	r3, [r7, #4]
    3554:	685a      	ldr	r2, [r3, #4]
    3556:	687b      	ldr	r3, [r7, #4]
    3558:	f103 0308 	add.w	r3, r3, #8
    355c:	429a      	cmp	r2, r3
    355e:	d105      	bne.n	356c <vTaskSwitchContext+0x144>
    3560:	687b      	ldr	r3, [r7, #4]
    3562:	685b      	ldr	r3, [r3, #4]
    3564:	685b      	ldr	r3, [r3, #4]
    3566:	461a      	mov	r2, r3
    3568:	687b      	ldr	r3, [r7, #4]
    356a:	605a      	str	r2, [r3, #4]
    356c:	687b      	ldr	r3, [r7, #4]
    356e:	685b      	ldr	r3, [r3, #4]
    3570:	68db      	ldr	r3, [r3, #12]
    3572:	461a      	mov	r2, r3
    3574:	f240 0328 	movw	r3, #40	; 0x28
    3578:	f2c2 0300 	movt	r3, #8192	; 0x2000
    357c:	601a      	str	r2, [r3, #0]
    357e:	f107 0708 	add.w	r7, r7, #8
    3582:	46bd      	mov	sp, r7
    3584:	bd80      	pop	{r7, pc}
    3586:	bf00      	nop

00003588 <vTaskPlaceOnEventList>:
    3588:	b580      	push	{r7, lr}
    358a:	b084      	sub	sp, #16
    358c:	af00      	add	r7, sp, #0
    358e:	6078      	str	r0, [r7, #4]
    3590:	6039      	str	r1, [r7, #0]
    3592:	687b      	ldr	r3, [r7, #4]
    3594:	2b00      	cmp	r3, #0
    3596:	d102      	bne.n	359e <vTaskPlaceOnEventList+0x16>
    3598:	f001 ffac 	bl	54f4 <ulPortSetInterruptMask>
    359c:	e7fe      	b.n	359c <vTaskPlaceOnEventList+0x14>
    359e:	f240 0328 	movw	r3, #40	; 0x28
    35a2:	f2c2 0300 	movt	r3, #8192	; 0x2000
    35a6:	681b      	ldr	r3, [r3, #0]
    35a8:	f103 0318 	add.w	r3, r3, #24
    35ac:	6878      	ldr	r0, [r7, #4]
    35ae:	4619      	mov	r1, r3
    35b0:	f000 fcd4 	bl	3f5c <vListInsert>
    35b4:	f240 0328 	movw	r3, #40	; 0x28
    35b8:	f2c2 0300 	movt	r3, #8192	; 0x2000
    35bc:	681b      	ldr	r3, [r3, #0]
    35be:	f103 0304 	add.w	r3, r3, #4
    35c2:	4618      	mov	r0, r3
    35c4:	f000 fd06 	bl	3fd4 <uxListRemove>
    35c8:	f240 13cc 	movw	r3, #460	; 0x1cc
    35cc:	f2c2 0300 	movt	r3, #8192	; 0x2000
    35d0:	681a      	ldr	r2, [r3, #0]
    35d2:	683b      	ldr	r3, [r7, #0]
    35d4:	18d3      	adds	r3, r2, r3
    35d6:	60fb      	str	r3, [r7, #12]
    35d8:	68f8      	ldr	r0, [r7, #12]
    35da:	f000 f9c5 	bl	3968 <prvAddCurrentTaskToDelayedList>
    35de:	f107 0710 	add.w	r7, r7, #16
    35e2:	46bd      	mov	sp, r7
    35e4:	bd80      	pop	{r7, pc}
    35e6:	bf00      	nop

000035e8 <xTaskRemoveFromEventList>:
    35e8:	b580      	push	{r7, lr}
    35ea:	b084      	sub	sp, #16
    35ec:	af00      	add	r7, sp, #0
    35ee:	6078      	str	r0, [r7, #4]
    35f0:	687b      	ldr	r3, [r7, #4]
    35f2:	68db      	ldr	r3, [r3, #12]
    35f4:	68db      	ldr	r3, [r3, #12]
    35f6:	60bb      	str	r3, [r7, #8]
    35f8:	68bb      	ldr	r3, [r7, #8]
    35fa:	2b00      	cmp	r3, #0
    35fc:	d102      	bne.n	3604 <xTaskRemoveFromEventList+0x1c>
    35fe:	f001 ff79 	bl	54f4 <ulPortSetInterruptMask>
    3602:	e7fe      	b.n	3602 <xTaskRemoveFromEventList+0x1a>
    3604:	68bb      	ldr	r3, [r7, #8]
    3606:	f103 0318 	add.w	r3, r3, #24
    360a:	4618      	mov	r0, r3
    360c:	f000 fce2 	bl	3fd4 <uxListRemove>
    3610:	f240 13dc 	movw	r3, #476	; 0x1dc
    3614:	f2c2 0300 	movt	r3, #8192	; 0x2000
    3618:	681b      	ldr	r3, [r3, #0]
    361a:	2b00      	cmp	r3, #0
    361c:	d12b      	bne.n	3676 <xTaskRemoveFromEventList+0x8e>
    361e:	68bb      	ldr	r3, [r7, #8]
    3620:	f103 0304 	add.w	r3, r3, #4
    3624:	4618      	mov	r0, r3
    3626:	f000 fcd5 	bl	3fd4 <uxListRemove>
    362a:	68bb      	ldr	r3, [r7, #8]
    362c:	6ada      	ldr	r2, [r3, #44]	; 0x2c
    362e:	f240 13d4 	movw	r3, #468	; 0x1d4
    3632:	f2c2 0300 	movt	r3, #8192	; 0x2000
    3636:	681b      	ldr	r3, [r3, #0]
    3638:	429a      	cmp	r2, r3
    363a:	d906      	bls.n	364a <xTaskRemoveFromEventList+0x62>
    363c:	68bb      	ldr	r3, [r7, #8]
    363e:	6ada      	ldr	r2, [r3, #44]	; 0x2c
    3640:	f240 13d4 	movw	r3, #468	; 0x1d4
    3644:	f2c2 0300 	movt	r3, #8192	; 0x2000
    3648:	601a      	str	r2, [r3, #0]
    364a:	68bb      	ldr	r3, [r7, #8]
    364c:	6ada      	ldr	r2, [r3, #44]	; 0x2c
    364e:	4613      	mov	r3, r2
    3650:	ea4f 0383 	mov.w	r3, r3, lsl #2
    3654:	189b      	adds	r3, r3, r2
    3656:	ea4f 0383 	mov.w	r3, r3, lsl #2
    365a:	461a      	mov	r2, r3
    365c:	f240 032c 	movw	r3, #44	; 0x2c
    3660:	f2c2 0300 	movt	r3, #8192	; 0x2000
    3664:	18d2      	adds	r2, r2, r3
    3666:	68bb      	ldr	r3, [r7, #8]
    3668:	f103 0304 	add.w	r3, r3, #4
    366c:	4610      	mov	r0, r2
    366e:	4619      	mov	r1, r3
    3670:	f000 fc4a 	bl	3f08 <vListInsertEnd>
    3674:	e009      	b.n	368a <xTaskRemoveFromEventList+0xa2>
    3676:	68bb      	ldr	r3, [r7, #8]
    3678:	f103 0318 	add.w	r3, r3, #24
    367c:	f240 109c 	movw	r0, #412	; 0x19c
    3680:	f2c2 0000 	movt	r0, #8192	; 0x2000
    3684:	4619      	mov	r1, r3
    3686:	f000 fc3f 	bl	3f08 <vListInsertEnd>
    368a:	68bb      	ldr	r3, [r7, #8]
    368c:	6ada      	ldr	r2, [r3, #44]	; 0x2c
    368e:	f240 0328 	movw	r3, #40	; 0x28
    3692:	f2c2 0300 	movt	r3, #8192	; 0x2000
    3696:	681b      	ldr	r3, [r3, #0]
    3698:	6adb      	ldr	r3, [r3, #44]	; 0x2c
    369a:	429a      	cmp	r2, r3
    369c:	d303      	bcc.n	36a6 <xTaskRemoveFromEventList+0xbe>
    369e:	f04f 0301 	mov.w	r3, #1
    36a2:	60fb      	str	r3, [r7, #12]
    36a4:	e002      	b.n	36ac <xTaskRemoveFromEventList+0xc4>
    36a6:	f04f 0300 	mov.w	r3, #0
    36aa:	60fb      	str	r3, [r7, #12]
    36ac:	68fb      	ldr	r3, [r7, #12]
    36ae:	4618      	mov	r0, r3
    36b0:	f107 0710 	add.w	r7, r7, #16
    36b4:	46bd      	mov	sp, r7
    36b6:	bd80      	pop	{r7, pc}

000036b8 <vTaskSetTimeOutState>:
    36b8:	b580      	push	{r7, lr}
    36ba:	b082      	sub	sp, #8
    36bc:	af00      	add	r7, sp, #0
    36be:	6078      	str	r0, [r7, #4]
    36c0:	687b      	ldr	r3, [r7, #4]
    36c2:	2b00      	cmp	r3, #0
    36c4:	d102      	bne.n	36cc <vTaskSetTimeOutState+0x14>
    36c6:	f001 ff15 	bl	54f4 <ulPortSetInterruptMask>
    36ca:	e7fe      	b.n	36ca <vTaskSetTimeOutState+0x12>
    36cc:	f240 13e8 	movw	r3, #488	; 0x1e8
    36d0:	f2c2 0300 	movt	r3, #8192	; 0x2000
    36d4:	681a      	ldr	r2, [r3, #0]
    36d6:	687b      	ldr	r3, [r7, #4]
    36d8:	601a      	str	r2, [r3, #0]
    36da:	f240 13cc 	movw	r3, #460	; 0x1cc
    36de:	f2c2 0300 	movt	r3, #8192	; 0x2000
    36e2:	681a      	ldr	r2, [r3, #0]
    36e4:	687b      	ldr	r3, [r7, #4]
    36e6:	605a      	str	r2, [r3, #4]
    36e8:	f107 0708 	add.w	r7, r7, #8
    36ec:	46bd      	mov	sp, r7
    36ee:	bd80      	pop	{r7, pc}

000036f0 <xTaskCheckForTimeOut>:
    36f0:	b580      	push	{r7, lr}
    36f2:	b084      	sub	sp, #16
    36f4:	af00      	add	r7, sp, #0
    36f6:	6078      	str	r0, [r7, #4]
    36f8:	6039      	str	r1, [r7, #0]
    36fa:	687b      	ldr	r3, [r7, #4]
    36fc:	2b00      	cmp	r3, #0
    36fe:	d102      	bne.n	3706 <xTaskCheckForTimeOut+0x16>
    3700:	f001 fef8 	bl	54f4 <ulPortSetInterruptMask>
    3704:	e7fe      	b.n	3704 <xTaskCheckForTimeOut+0x14>
    3706:	683b      	ldr	r3, [r7, #0]
    3708:	2b00      	cmp	r3, #0
    370a:	d102      	bne.n	3712 <xTaskCheckForTimeOut+0x22>
    370c:	f001 fef2 	bl	54f4 <ulPortSetInterruptMask>
    3710:	e7fe      	b.n	3710 <xTaskCheckForTimeOut+0x20>
    3712:	f001 fec3 	bl	549c <vPortEnterCritical>
    3716:	687b      	ldr	r3, [r7, #4]
    3718:	681a      	ldr	r2, [r3, #0]
    371a:	f240 13e8 	movw	r3, #488	; 0x1e8
    371e:	f2c2 0300 	movt	r3, #8192	; 0x2000
    3722:	681b      	ldr	r3, [r3, #0]
    3724:	429a      	cmp	r2, r3
    3726:	d00c      	beq.n	3742 <xTaskCheckForTimeOut+0x52>
    3728:	687b      	ldr	r3, [r7, #4]
    372a:	685a      	ldr	r2, [r3, #4]
    372c:	f240 13cc 	movw	r3, #460	; 0x1cc
    3730:	f2c2 0300 	movt	r3, #8192	; 0x2000
    3734:	681b      	ldr	r3, [r3, #0]
    3736:	429a      	cmp	r2, r3
    3738:	d803      	bhi.n	3742 <xTaskCheckForTimeOut+0x52>
    373a:	f04f 0301 	mov.w	r3, #1
    373e:	60fb      	str	r3, [r7, #12]
    3740:	e022      	b.n	3788 <xTaskCheckForTimeOut+0x98>
    3742:	f240 13cc 	movw	r3, #460	; 0x1cc
    3746:	f2c2 0300 	movt	r3, #8192	; 0x2000
    374a:	681a      	ldr	r2, [r3, #0]
    374c:	687b      	ldr	r3, [r7, #4]
    374e:	685b      	ldr	r3, [r3, #4]
    3750:	1ad2      	subs	r2, r2, r3
    3752:	683b      	ldr	r3, [r7, #0]
    3754:	681b      	ldr	r3, [r3, #0]
    3756:	429a      	cmp	r2, r3
    3758:	d213      	bcs.n	3782 <xTaskCheckForTimeOut+0x92>
    375a:	683b      	ldr	r3, [r7, #0]
    375c:	681a      	ldr	r2, [r3, #0]
    375e:	687b      	ldr	r3, [r7, #4]
    3760:	6859      	ldr	r1, [r3, #4]
    3762:	f240 13cc 	movw	r3, #460	; 0x1cc
    3766:	f2c2 0300 	movt	r3, #8192	; 0x2000
    376a:	681b      	ldr	r3, [r3, #0]
    376c:	1acb      	subs	r3, r1, r3
    376e:	18d2      	adds	r2, r2, r3
    3770:	683b      	ldr	r3, [r7, #0]
    3772:	601a      	str	r2, [r3, #0]
    3774:	6878      	ldr	r0, [r7, #4]
    3776:	f7ff ff9f 	bl	36b8 <vTaskSetTimeOutState>
    377a:	f04f 0300 	mov.w	r3, #0
    377e:	60fb      	str	r3, [r7, #12]
    3780:	e002      	b.n	3788 <xTaskCheckForTimeOut+0x98>
    3782:	f04f 0301 	mov.w	r3, #1
    3786:	60fb      	str	r3, [r7, #12]
    3788:	f001 fe9a 	bl	54c0 <vPortExitCritical>
    378c:	68fb      	ldr	r3, [r7, #12]
    378e:	4618      	mov	r0, r3
    3790:	f107 0710 	add.w	r7, r7, #16
    3794:	46bd      	mov	sp, r7
    3796:	bd80      	pop	{r7, pc}

00003798 <vTaskMissedYield>:
    3798:	b480      	push	{r7}
    379a:	af00      	add	r7, sp, #0
    379c:	f240 13e4 	movw	r3, #484	; 0x1e4
    37a0:	f2c2 0300 	movt	r3, #8192	; 0x2000
    37a4:	f04f 0201 	mov.w	r2, #1
    37a8:	601a      	str	r2, [r3, #0]
    37aa:	46bd      	mov	sp, r7
    37ac:	bc80      	pop	{r7}
    37ae:	4770      	bx	lr

000037b0 <prvIdleTask>:
    37b0:	b580      	push	{r7, lr}
    37b2:	b082      	sub	sp, #8
    37b4:	af00      	add	r7, sp, #0
    37b6:	6078      	str	r0, [r7, #4]
    37b8:	f000 f88a 	bl	38d0 <prvCheckTasksWaitingTermination>
    37bc:	e7fc      	b.n	37b8 <prvIdleTask+0x8>
    37be:	bf00      	nop

000037c0 <prvInitialiseTCBVariables>:
    37c0:	b580      	push	{r7, lr}
    37c2:	b084      	sub	sp, #16
    37c4:	af00      	add	r7, sp, #0
    37c6:	60f8      	str	r0, [r7, #12]
    37c8:	60b9      	str	r1, [r7, #8]
    37ca:	607a      	str	r2, [r7, #4]
    37cc:	603b      	str	r3, [r7, #0]
    37ce:	68fb      	ldr	r3, [r7, #12]
    37d0:	f103 0334 	add.w	r3, r3, #52	; 0x34
    37d4:	4618      	mov	r0, r3
    37d6:	68b9      	ldr	r1, [r7, #8]
    37d8:	f04f 0205 	mov.w	r2, #5
    37dc:	f003 f83e 	bl	685c <strncpy>
    37e0:	68fb      	ldr	r3, [r7, #12]
    37e2:	f04f 0200 	mov.w	r2, #0
    37e6:	f883 2038 	strb.w	r2, [r3, #56]	; 0x38
    37ea:	687b      	ldr	r3, [r7, #4]
    37ec:	2b0f      	cmp	r3, #15
    37ee:	d902      	bls.n	37f6 <prvInitialiseTCBVariables+0x36>
    37f0:	f04f 030f 	mov.w	r3, #15
    37f4:	607b      	str	r3, [r7, #4]
    37f6:	68fb      	ldr	r3, [r7, #12]
    37f8:	687a      	ldr	r2, [r7, #4]
    37fa:	62da      	str	r2, [r3, #44]	; 0x2c
    37fc:	68fb      	ldr	r3, [r7, #12]
    37fe:	687a      	ldr	r2, [r7, #4]
    3800:	63da      	str	r2, [r3, #60]	; 0x3c
    3802:	68fb      	ldr	r3, [r7, #12]
    3804:	f103 0304 	add.w	r3, r3, #4
    3808:	4618      	mov	r0, r3
    380a:	f000 fb6f 	bl	3eec <vListInitialiseItem>
    380e:	68fb      	ldr	r3, [r7, #12]
    3810:	f103 0318 	add.w	r3, r3, #24
    3814:	4618      	mov	r0, r3
    3816:	f000 fb69 	bl	3eec <vListInitialiseItem>
    381a:	68fb      	ldr	r3, [r7, #12]
    381c:	68fa      	ldr	r2, [r7, #12]
    381e:	611a      	str	r2, [r3, #16]
    3820:	687b      	ldr	r3, [r7, #4]
    3822:	f1c3 0210 	rsb	r2, r3, #16
    3826:	68fb      	ldr	r3, [r7, #12]
    3828:	619a      	str	r2, [r3, #24]
    382a:	68fb      	ldr	r3, [r7, #12]
    382c:	68fa      	ldr	r2, [r7, #12]
    382e:	625a      	str	r2, [r3, #36]	; 0x24
    3830:	f107 0710 	add.w	r7, r7, #16
    3834:	46bd      	mov	sp, r7
    3836:	bd80      	pop	{r7, pc}

00003838 <prvInitialiseTaskLists>:
    3838:	b580      	push	{r7, lr}
    383a:	b082      	sub	sp, #8
    383c:	af00      	add	r7, sp, #0
    383e:	f04f 0300 	mov.w	r3, #0
    3842:	607b      	str	r3, [r7, #4]
    3844:	e013      	b.n	386e <prvInitialiseTaskLists+0x36>
    3846:	687a      	ldr	r2, [r7, #4]
    3848:	4613      	mov	r3, r2
    384a:	ea4f 0383 	mov.w	r3, r3, lsl #2
    384e:	189b      	adds	r3, r3, r2
    3850:	ea4f 0383 	mov.w	r3, r3, lsl #2
    3854:	461a      	mov	r2, r3
    3856:	f240 032c 	movw	r3, #44	; 0x2c
    385a:	f2c2 0300 	movt	r3, #8192	; 0x2000
    385e:	18d3      	adds	r3, r2, r3
    3860:	4618      	mov	r0, r3
    3862:	f000 fb23 	bl	3eac <vListInitialise>
    3866:	687b      	ldr	r3, [r7, #4]
    3868:	f103 0301 	add.w	r3, r3, #1
    386c:	607b      	str	r3, [r7, #4]
    386e:	687b      	ldr	r3, [r7, #4]
    3870:	2b0f      	cmp	r3, #15
    3872:	d9e8      	bls.n	3846 <prvInitialiseTaskLists+0xe>
    3874:	f240 106c 	movw	r0, #364	; 0x16c
    3878:	f2c2 0000 	movt	r0, #8192	; 0x2000
    387c:	f000 fb16 	bl	3eac <vListInitialise>
    3880:	f240 1080 	movw	r0, #384	; 0x180
    3884:	f2c2 0000 	movt	r0, #8192	; 0x2000
    3888:	f000 fb10 	bl	3eac <vListInitialise>
    388c:	f240 109c 	movw	r0, #412	; 0x19c
    3890:	f2c2 0000 	movt	r0, #8192	; 0x2000
    3894:	f000 fb0a 	bl	3eac <vListInitialise>
    3898:	f240 10b0 	movw	r0, #432	; 0x1b0
    389c:	f2c2 0000 	movt	r0, #8192	; 0x2000
    38a0:	f000 fb04 	bl	3eac <vListInitialise>
    38a4:	f240 1394 	movw	r3, #404	; 0x194
    38a8:	f2c2 0300 	movt	r3, #8192	; 0x2000
    38ac:	f240 126c 	movw	r2, #364	; 0x16c
    38b0:	f2c2 0200 	movt	r2, #8192	; 0x2000
    38b4:	601a      	str	r2, [r3, #0]
    38b6:	f240 1398 	movw	r3, #408	; 0x198
    38ba:	f2c2 0300 	movt	r3, #8192	; 0x2000
    38be:	f240 1280 	movw	r2, #384	; 0x180
    38c2:	f2c2 0200 	movt	r2, #8192	; 0x2000
    38c6:	601a      	str	r2, [r3, #0]
    38c8:	f107 0708 	add.w	r7, r7, #8
    38cc:	46bd      	mov	sp, r7
    38ce:	bd80      	pop	{r7, pc}

000038d0 <prvCheckTasksWaitingTermination>:
    38d0:	b580      	push	{r7, lr}
    38d2:	b082      	sub	sp, #8
    38d4:	af00      	add	r7, sp, #0
    38d6:	e03c      	b.n	3952 <prvCheckTasksWaitingTermination+0x82>
    38d8:	f7ff fbfa 	bl	30d0 <vTaskSuspendAll>
    38dc:	f240 13b0 	movw	r3, #432	; 0x1b0
    38e0:	f2c2 0300 	movt	r3, #8192	; 0x2000
    38e4:	681b      	ldr	r3, [r3, #0]
    38e6:	2b00      	cmp	r3, #0
    38e8:	bf14      	ite	ne
    38ea:	2300      	movne	r3, #0
    38ec:	2301      	moveq	r3, #1
    38ee:	607b      	str	r3, [r7, #4]
    38f0:	f7ff fc00 	bl	30f4 <xTaskResumeAll>
    38f4:	687b      	ldr	r3, [r7, #4]
    38f6:	2b00      	cmp	r3, #0
    38f8:	d12b      	bne.n	3952 <prvCheckTasksWaitingTermination+0x82>
    38fa:	f001 fdcf 	bl	549c <vPortEnterCritical>
    38fe:	f240 13b0 	movw	r3, #432	; 0x1b0
    3902:	f2c2 0300 	movt	r3, #8192	; 0x2000
    3906:	68db      	ldr	r3, [r3, #12]
    3908:	68db      	ldr	r3, [r3, #12]
    390a:	603b      	str	r3, [r7, #0]
    390c:	683b      	ldr	r3, [r7, #0]
    390e:	f103 0304 	add.w	r3, r3, #4
    3912:	4618      	mov	r0, r3
    3914:	f000 fb5e 	bl	3fd4 <uxListRemove>
    3918:	f240 13c8 	movw	r3, #456	; 0x1c8
    391c:	f2c2 0300 	movt	r3, #8192	; 0x2000
    3920:	681b      	ldr	r3, [r3, #0]
    3922:	f103 32ff 	add.w	r2, r3, #4294967295
    3926:	f240 13c8 	movw	r3, #456	; 0x1c8
    392a:	f2c2 0300 	movt	r3, #8192	; 0x2000
    392e:	601a      	str	r2, [r3, #0]
    3930:	f240 13c4 	movw	r3, #452	; 0x1c4
    3934:	f2c2 0300 	movt	r3, #8192	; 0x2000
    3938:	681b      	ldr	r3, [r3, #0]
    393a:	f103 32ff 	add.w	r2, r3, #4294967295
    393e:	f240 13c4 	movw	r3, #452	; 0x1c4
    3942:	f2c2 0300 	movt	r3, #8192	; 0x2000
    3946:	601a      	str	r2, [r3, #0]
    3948:	f001 fdba 	bl	54c0 <vPortExitCritical>
    394c:	6838      	ldr	r0, [r7, #0]
    394e:	f000 f88b 	bl	3a68 <prvDeleteTCB>
    3952:	f240 13c4 	movw	r3, #452	; 0x1c4
    3956:	f2c2 0300 	movt	r3, #8192	; 0x2000
    395a:	681b      	ldr	r3, [r3, #0]
    395c:	2b00      	cmp	r3, #0
    395e:	d1bb      	bne.n	38d8 <prvCheckTasksWaitingTermination+0x8>
    3960:	f107 0708 	add.w	r7, r7, #8
    3964:	46bd      	mov	sp, r7
    3966:	bd80      	pop	{r7, pc}

00003968 <prvAddCurrentTaskToDelayedList>:
    3968:	b580      	push	{r7, lr}
    396a:	b082      	sub	sp, #8
    396c:	af00      	add	r7, sp, #0
    396e:	6078      	str	r0, [r7, #4]
    3970:	f240 0328 	movw	r3, #40	; 0x28
    3974:	f2c2 0300 	movt	r3, #8192	; 0x2000
    3978:	681b      	ldr	r3, [r3, #0]
    397a:	687a      	ldr	r2, [r7, #4]
    397c:	605a      	str	r2, [r3, #4]
    397e:	f240 13cc 	movw	r3, #460	; 0x1cc
    3982:	f2c2 0300 	movt	r3, #8192	; 0x2000
    3986:	681b      	ldr	r3, [r3, #0]
    3988:	687a      	ldr	r2, [r7, #4]
    398a:	429a      	cmp	r2, r3
    398c:	d210      	bcs.n	39b0 <prvAddCurrentTaskToDelayedList+0x48>
    398e:	f240 1398 	movw	r3, #408	; 0x198
    3992:	f2c2 0300 	movt	r3, #8192	; 0x2000
    3996:	681a      	ldr	r2, [r3, #0]
    3998:	f240 0328 	movw	r3, #40	; 0x28
    399c:	f2c2 0300 	movt	r3, #8192	; 0x2000
    39a0:	681b      	ldr	r3, [r3, #0]
    39a2:	f103 0304 	add.w	r3, r3, #4
    39a6:	4610      	mov	r0, r2
    39a8:	4619      	mov	r1, r3
    39aa:	f000 fad7 	bl	3f5c <vListInsert>
    39ae:	e01d      	b.n	39ec <prvAddCurrentTaskToDelayedList+0x84>
    39b0:	f240 1394 	movw	r3, #404	; 0x194
    39b4:	f2c2 0300 	movt	r3, #8192	; 0x2000
    39b8:	681a      	ldr	r2, [r3, #0]
    39ba:	f240 0328 	movw	r3, #40	; 0x28
    39be:	f2c2 0300 	movt	r3, #8192	; 0x2000
    39c2:	681b      	ldr	r3, [r3, #0]
    39c4:	f103 0304 	add.w	r3, r3, #4
    39c8:	4610      	mov	r0, r2
    39ca:	4619      	mov	r1, r3
    39cc:	f000 fac6 	bl	3f5c <vListInsert>
    39d0:	f240 0304 	movw	r3, #4
    39d4:	f2c2 0300 	movt	r3, #8192	; 0x2000
    39d8:	681b      	ldr	r3, [r3, #0]
    39da:	687a      	ldr	r2, [r7, #4]
    39dc:	429a      	cmp	r2, r3
    39de:	d205      	bcs.n	39ec <prvAddCurrentTaskToDelayedList+0x84>
    39e0:	f240 0304 	movw	r3, #4
    39e4:	f2c2 0300 	movt	r3, #8192	; 0x2000
    39e8:	687a      	ldr	r2, [r7, #4]
    39ea:	601a      	str	r2, [r3, #0]
    39ec:	f107 0708 	add.w	r7, r7, #8
    39f0:	46bd      	mov	sp, r7
    39f2:	bd80      	pop	{r7, pc}

000039f4 <prvAllocateTCBAndStack>:
    39f4:	b580      	push	{r7, lr}
    39f6:	b084      	sub	sp, #16
    39f8:	af00      	add	r7, sp, #0
    39fa:	4603      	mov	r3, r0
    39fc:	6039      	str	r1, [r7, #0]
    39fe:	80fb      	strh	r3, [r7, #6]
    3a00:	f04f 0040 	mov.w	r0, #64	; 0x40
    3a04:	f001 fe7c 	bl	5700 <pvPortMalloc>
    3a08:	4603      	mov	r3, r0
    3a0a:	60fb      	str	r3, [r7, #12]
    3a0c:	68fb      	ldr	r3, [r7, #12]
    3a0e:	2b00      	cmp	r3, #0
    3a10:	d023      	beq.n	3a5a <prvAllocateTCBAndStack+0x66>
    3a12:	683b      	ldr	r3, [r7, #0]
    3a14:	2b00      	cmp	r3, #0
    3a16:	d107      	bne.n	3a28 <prvAllocateTCBAndStack+0x34>
    3a18:	88fb      	ldrh	r3, [r7, #6]
    3a1a:	ea4f 0383 	mov.w	r3, r3, lsl #2
    3a1e:	4618      	mov	r0, r3
    3a20:	f001 fe6e 	bl	5700 <pvPortMalloc>
    3a24:	4603      	mov	r3, r0
    3a26:	e000      	b.n	3a2a <prvAllocateTCBAndStack+0x36>
    3a28:	683b      	ldr	r3, [r7, #0]
    3a2a:	68fa      	ldr	r2, [r7, #12]
    3a2c:	6313      	str	r3, [r2, #48]	; 0x30
    3a2e:	68fb      	ldr	r3, [r7, #12]
    3a30:	6b1b      	ldr	r3, [r3, #48]	; 0x30
    3a32:	2b00      	cmp	r3, #0
    3a34:	d106      	bne.n	3a44 <prvAllocateTCBAndStack+0x50>
    3a36:	68f8      	ldr	r0, [r7, #12]
    3a38:	f001 ff3a 	bl	58b0 <vPortFree>
    3a3c:	f04f 0300 	mov.w	r3, #0
    3a40:	60fb      	str	r3, [r7, #12]
    3a42:	e00a      	b.n	3a5a <prvAllocateTCBAndStack+0x66>
    3a44:	68fb      	ldr	r3, [r7, #12]
    3a46:	6b1a      	ldr	r2, [r3, #48]	; 0x30
    3a48:	88fb      	ldrh	r3, [r7, #6]
    3a4a:	ea4f 0383 	mov.w	r3, r3, lsl #2
    3a4e:	4610      	mov	r0, r2
    3a50:	f04f 01a5 	mov.w	r1, #165	; 0xa5
    3a54:	461a      	mov	r2, r3
    3a56:	f002 feb9 	bl	67cc <memset>
    3a5a:	68fb      	ldr	r3, [r7, #12]
    3a5c:	4618      	mov	r0, r3
    3a5e:	f107 0710 	add.w	r7, r7, #16
    3a62:	46bd      	mov	sp, r7
    3a64:	bd80      	pop	{r7, pc}
    3a66:	bf00      	nop

00003a68 <prvDeleteTCB>:
    3a68:	b580      	push	{r7, lr}
    3a6a:	b082      	sub	sp, #8
    3a6c:	af00      	add	r7, sp, #0
    3a6e:	6078      	str	r0, [r7, #4]
    3a70:	687b      	ldr	r3, [r7, #4]
    3a72:	6b1b      	ldr	r3, [r3, #48]	; 0x30
    3a74:	4618      	mov	r0, r3
    3a76:	f001 ff1b 	bl	58b0 <vPortFree>
    3a7a:	6878      	ldr	r0, [r7, #4]
    3a7c:	f001 ff18 	bl	58b0 <vPortFree>
    3a80:	f107 0708 	add.w	r7, r7, #8
    3a84:	46bd      	mov	sp, r7
    3a86:	bd80      	pop	{r7, pc}

00003a88 <xTaskGetCurrentTaskHandle>:
    3a88:	b480      	push	{r7}
    3a8a:	b083      	sub	sp, #12
    3a8c:	af00      	add	r7, sp, #0
    3a8e:	f240 0328 	movw	r3, #40	; 0x28
    3a92:	f2c2 0300 	movt	r3, #8192	; 0x2000
    3a96:	681b      	ldr	r3, [r3, #0]
    3a98:	607b      	str	r3, [r7, #4]
    3a9a:	687b      	ldr	r3, [r7, #4]
    3a9c:	4618      	mov	r0, r3
    3a9e:	f107 070c 	add.w	r7, r7, #12
    3aa2:	46bd      	mov	sp, r7
    3aa4:	bc80      	pop	{r7}
    3aa6:	4770      	bx	lr

00003aa8 <vTaskPriorityInherit>:
    3aa8:	b580      	push	{r7, lr}
    3aaa:	b084      	sub	sp, #16
    3aac:	af00      	add	r7, sp, #0
    3aae:	6078      	str	r0, [r7, #4]
    3ab0:	687b      	ldr	r3, [r7, #4]
    3ab2:	60fb      	str	r3, [r7, #12]
    3ab4:	687b      	ldr	r3, [r7, #4]
    3ab6:	2b00      	cmp	r3, #0
    3ab8:	d061      	beq.n	3b7e <vTaskPriorityInherit+0xd6>
    3aba:	68fb      	ldr	r3, [r7, #12]
    3abc:	6ada      	ldr	r2, [r3, #44]	; 0x2c
    3abe:	f240 0328 	movw	r3, #40	; 0x28
    3ac2:	f2c2 0300 	movt	r3, #8192	; 0x2000
    3ac6:	681b      	ldr	r3, [r3, #0]
    3ac8:	6adb      	ldr	r3, [r3, #44]	; 0x2c
    3aca:	429a      	cmp	r2, r3
    3acc:	d257      	bcs.n	3b7e <vTaskPriorityInherit+0xd6>
    3ace:	f240 0328 	movw	r3, #40	; 0x28
    3ad2:	f2c2 0300 	movt	r3, #8192	; 0x2000
    3ad6:	681b      	ldr	r3, [r3, #0]
    3ad8:	6adb      	ldr	r3, [r3, #44]	; 0x2c
    3ada:	f1c3 0210 	rsb	r2, r3, #16
    3ade:	68fb      	ldr	r3, [r7, #12]
    3ae0:	619a      	str	r2, [r3, #24]
    3ae2:	68fb      	ldr	r3, [r7, #12]
    3ae4:	6959      	ldr	r1, [r3, #20]
    3ae6:	68fb      	ldr	r3, [r7, #12]
    3ae8:	6ada      	ldr	r2, [r3, #44]	; 0x2c
    3aea:	4613      	mov	r3, r2
    3aec:	ea4f 0383 	mov.w	r3, r3, lsl #2
    3af0:	189b      	adds	r3, r3, r2
    3af2:	ea4f 0383 	mov.w	r3, r3, lsl #2
    3af6:	461a      	mov	r2, r3
    3af8:	f240 032c 	movw	r3, #44	; 0x2c
    3afc:	f2c2 0300 	movt	r3, #8192	; 0x2000
    3b00:	18d3      	adds	r3, r2, r3
    3b02:	4299      	cmp	r1, r3
    3b04:	d133      	bne.n	3b6e <vTaskPriorityInherit+0xc6>
    3b06:	68fb      	ldr	r3, [r7, #12]
    3b08:	f103 0304 	add.w	r3, r3, #4
    3b0c:	4618      	mov	r0, r3
    3b0e:	f000 fa61 	bl	3fd4 <uxListRemove>
    3b12:	f240 0328 	movw	r3, #40	; 0x28
    3b16:	f2c2 0300 	movt	r3, #8192	; 0x2000
    3b1a:	681b      	ldr	r3, [r3, #0]
    3b1c:	6ada      	ldr	r2, [r3, #44]	; 0x2c
    3b1e:	68fb      	ldr	r3, [r7, #12]
    3b20:	62da      	str	r2, [r3, #44]	; 0x2c
    3b22:	68fb      	ldr	r3, [r7, #12]
    3b24:	6ada      	ldr	r2, [r3, #44]	; 0x2c
    3b26:	f240 13d4 	movw	r3, #468	; 0x1d4
    3b2a:	f2c2 0300 	movt	r3, #8192	; 0x2000
    3b2e:	681b      	ldr	r3, [r3, #0]
    3b30:	429a      	cmp	r2, r3
    3b32:	d906      	bls.n	3b42 <vTaskPriorityInherit+0x9a>
    3b34:	68fb      	ldr	r3, [r7, #12]
    3b36:	6ada      	ldr	r2, [r3, #44]	; 0x2c
    3b38:	f240 13d4 	movw	r3, #468	; 0x1d4
    3b3c:	f2c2 0300 	movt	r3, #8192	; 0x2000
    3b40:	601a      	str	r2, [r3, #0]
    3b42:	68fb      	ldr	r3, [r7, #12]
    3b44:	6ada      	ldr	r2, [r3, #44]	; 0x2c
    3b46:	4613      	mov	r3, r2
    3b48:	ea4f 0383 	mov.w	r3, r3, lsl #2
    3b4c:	189b      	adds	r3, r3, r2
    3b4e:	ea4f 0383 	mov.w	r3, r3, lsl #2
    3b52:	461a      	mov	r2, r3
    3b54:	f240 032c 	movw	r3, #44	; 0x2c
    3b58:	f2c2 0300 	movt	r3, #8192	; 0x2000
    3b5c:	18d2      	adds	r2, r2, r3
    3b5e:	68fb      	ldr	r3, [r7, #12]
    3b60:	f103 0304 	add.w	r3, r3, #4
    3b64:	4610      	mov	r0, r2
    3b66:	4619      	mov	r1, r3
    3b68:	f000 f9ce 	bl	3f08 <vListInsertEnd>
    3b6c:	e007      	b.n	3b7e <vTaskPriorityInherit+0xd6>
    3b6e:	f240 0328 	movw	r3, #40	; 0x28
    3b72:	f2c2 0300 	movt	r3, #8192	; 0x2000
    3b76:	681b      	ldr	r3, [r3, #0]
    3b78:	6ada      	ldr	r2, [r3, #44]	; 0x2c
    3b7a:	68fb      	ldr	r3, [r7, #12]
    3b7c:	62da      	str	r2, [r3, #44]	; 0x2c
    3b7e:	f107 0710 	add.w	r7, r7, #16
    3b82:	46bd      	mov	sp, r7
    3b84:	bd80      	pop	{r7, pc}
    3b86:	bf00      	nop

00003b88 <vTaskPriorityDisinherit>:
    3b88:	b580      	push	{r7, lr}
    3b8a:	b084      	sub	sp, #16
    3b8c:	af00      	add	r7, sp, #0
    3b8e:	6078      	str	r0, [r7, #4]
    3b90:	687b      	ldr	r3, [r7, #4]
    3b92:	60fb      	str	r3, [r7, #12]
    3b94:	687b      	ldr	r3, [r7, #4]
    3b96:	2b00      	cmp	r3, #0
    3b98:	d03a      	beq.n	3c10 <vTaskPriorityDisinherit+0x88>
    3b9a:	68fb      	ldr	r3, [r7, #12]
    3b9c:	6ada      	ldr	r2, [r3, #44]	; 0x2c
    3b9e:	68fb      	ldr	r3, [r7, #12]
    3ba0:	6bdb      	ldr	r3, [r3, #60]	; 0x3c
    3ba2:	429a      	cmp	r2, r3
    3ba4:	d034      	beq.n	3c10 <vTaskPriorityDisinherit+0x88>
    3ba6:	68fb      	ldr	r3, [r7, #12]
    3ba8:	f103 0304 	add.w	r3, r3, #4
    3bac:	4618      	mov	r0, r3
    3bae:	f000 fa11 	bl	3fd4 <uxListRemove>
    3bb2:	68fb      	ldr	r3, [r7, #12]
    3bb4:	6bda      	ldr	r2, [r3, #60]	; 0x3c
    3bb6:	68fb      	ldr	r3, [r7, #12]
    3bb8:	62da      	str	r2, [r3, #44]	; 0x2c
    3bba:	68fb      	ldr	r3, [r7, #12]
    3bbc:	6adb      	ldr	r3, [r3, #44]	; 0x2c
    3bbe:	f1c3 0210 	rsb	r2, r3, #16
    3bc2:	68fb      	ldr	r3, [r7, #12]
    3bc4:	619a      	str	r2, [r3, #24]
    3bc6:	68fb      	ldr	r3, [r7, #12]
    3bc8:	6ada      	ldr	r2, [r3, #44]	; 0x2c
    3bca:	f240 13d4 	movw	r3, #468	; 0x1d4
    3bce:	f2c2 0300 	movt	r3, #8192	; 0x2000
    3bd2:	681b      	ldr	r3, [r3, #0]
    3bd4:	429a      	cmp	r2, r3
    3bd6:	d906      	bls.n	3be6 <vTaskPriorityDisinherit+0x5e>
    3bd8:	68fb      	ldr	r3, [r7, #12]
    3bda:	6ada      	ldr	r2, [r3, #44]	; 0x2c
    3bdc:	f240 13d4 	movw	r3, #468	; 0x1d4
    3be0:	f2c2 0300 	movt	r3, #8192	; 0x2000
    3be4:	601a      	str	r2, [r3, #0]
    3be6:	68fb      	ldr	r3, [r7, #12]
    3be8:	6ada      	ldr	r2, [r3, #44]	; 0x2c
    3bea:	4613      	mov	r3, r2
    3bec:	ea4f 0383 	mov.w	r3, r3, lsl #2
    3bf0:	189b      	adds	r3, r3, r2
    3bf2:	ea4f 0383 	mov.w	r3, r3, lsl #2
    3bf6:	461a      	mov	r2, r3
    3bf8:	f240 032c 	movw	r3, #44	; 0x2c
    3bfc:	f2c2 0300 	movt	r3, #8192	; 0x2000
    3c00:	18d2      	adds	r2, r2, r3
    3c02:	68fb      	ldr	r3, [r7, #12]
    3c04:	f103 0304 	add.w	r3, r3, #4
    3c08:	4610      	mov	r0, r2
    3c0a:	4619      	mov	r1, r3
    3c0c:	f000 f97c 	bl	3f08 <vListInsertEnd>
    3c10:	f107 0710 	add.w	r7, r7, #16
    3c14:	46bd      	mov	sp, r7
    3c16:	bd80      	pop	{r7, pc}

00003c18 <IntPrioritySet>:
    3c18:	b480      	push	{r7}
    3c1a:	b085      	sub	sp, #20
    3c1c:	af00      	add	r7, sp, #0
    3c1e:	6078      	str	r0, [r7, #4]
    3c20:	460b      	mov	r3, r1
    3c22:	70fb      	strb	r3, [r7, #3]
    3c24:	687b      	ldr	r3, [r7, #4]
    3c26:	ea4f 0293 	mov.w	r2, r3, lsr #2
    3c2a:	f646 13e4 	movw	r3, #27108	; 0x69e4
    3c2e:	f2c0 0300 	movt	r3, #0
    3c32:	f853 3022 	ldr.w	r3, [r3, r2, lsl #2]
    3c36:	681b      	ldr	r3, [r3, #0]
    3c38:	60fb      	str	r3, [r7, #12]
    3c3a:	687b      	ldr	r3, [r7, #4]
    3c3c:	f003 0303 	and.w	r3, r3, #3
    3c40:	ea4f 03c3 	mov.w	r3, r3, lsl #3
    3c44:	f04f 02ff 	mov.w	r2, #255	; 0xff
    3c48:	fa02 f303 	lsl.w	r3, r2, r3
    3c4c:	ea6f 0303 	mvn.w	r3, r3
    3c50:	68fa      	ldr	r2, [r7, #12]
    3c52:	4013      	ands	r3, r2
    3c54:	60fb      	str	r3, [r7, #12]
    3c56:	78fa      	ldrb	r2, [r7, #3]
    3c58:	687b      	ldr	r3, [r7, #4]
    3c5a:	f003 0303 	and.w	r3, r3, #3
    3c5e:	ea4f 03c3 	mov.w	r3, r3, lsl #3
    3c62:	fa02 f303 	lsl.w	r3, r2, r3
    3c66:	68fa      	ldr	r2, [r7, #12]
    3c68:	4313      	orrs	r3, r2
    3c6a:	60fb      	str	r3, [r7, #12]
    3c6c:	687b      	ldr	r3, [r7, #4]
    3c6e:	ea4f 0293 	mov.w	r2, r3, lsr #2
    3c72:	f646 13e4 	movw	r3, #27108	; 0x69e4
    3c76:	f2c0 0300 	movt	r3, #0
    3c7a:	f853 3022 	ldr.w	r3, [r3, r2, lsl #2]
    3c7e:	68fa      	ldr	r2, [r7, #12]
    3c80:	601a      	str	r2, [r3, #0]
    3c82:	f107 0714 	add.w	r7, r7, #20
    3c86:	46bd      	mov	sp, r7
    3c88:	bc80      	pop	{r7}
    3c8a:	4770      	bx	lr

00003c8c <IntEnable>:
    3c8c:	b480      	push	{r7}
    3c8e:	b083      	sub	sp, #12
    3c90:	af00      	add	r7, sp, #0
    3c92:	6078      	str	r0, [r7, #4]
    3c94:	687b      	ldr	r3, [r7, #4]
    3c96:	2b04      	cmp	r3, #4
    3c98:	d10c      	bne.n	3cb4 <IntEnable+0x28>
    3c9a:	f64e 5324 	movw	r3, #60708	; 0xed24
    3c9e:	f2ce 0300 	movt	r3, #57344	; 0xe000
    3ca2:	f64e 5224 	movw	r2, #60708	; 0xed24
    3ca6:	f2ce 0200 	movt	r2, #57344	; 0xe000
    3caa:	6812      	ldr	r2, [r2, #0]
    3cac:	f442 3280 	orr.w	r2, r2, #65536	; 0x10000
    3cb0:	601a      	str	r2, [r3, #0]
    3cb2:	e051      	b.n	3d58 <IntEnable+0xcc>
    3cb4:	687b      	ldr	r3, [r7, #4]
    3cb6:	2b05      	cmp	r3, #5
    3cb8:	d10c      	bne.n	3cd4 <IntEnable+0x48>
    3cba:	f64e 5324 	movw	r3, #60708	; 0xed24
    3cbe:	f2ce 0300 	movt	r3, #57344	; 0xe000
    3cc2:	f64e 5224 	movw	r2, #60708	; 0xed24
    3cc6:	f2ce 0200 	movt	r2, #57344	; 0xe000
    3cca:	6812      	ldr	r2, [r2, #0]
    3ccc:	f442 3200 	orr.w	r2, r2, #131072	; 0x20000
    3cd0:	601a      	str	r2, [r3, #0]
    3cd2:	e041      	b.n	3d58 <IntEnable+0xcc>
    3cd4:	687b      	ldr	r3, [r7, #4]
    3cd6:	2b06      	cmp	r3, #6
    3cd8:	d10c      	bne.n	3cf4 <IntEnable+0x68>
    3cda:	f64e 5324 	movw	r3, #60708	; 0xed24
    3cde:	f2ce 0300 	movt	r3, #57344	; 0xe000
    3ce2:	f64e 5224 	movw	r2, #60708	; 0xed24
    3ce6:	f2ce 0200 	movt	r2, #57344	; 0xe000
    3cea:	6812      	ldr	r2, [r2, #0]
    3cec:	f442 2280 	orr.w	r2, r2, #262144	; 0x40000
    3cf0:	601a      	str	r2, [r3, #0]
    3cf2:	e031      	b.n	3d58 <IntEnable+0xcc>
    3cf4:	687b      	ldr	r3, [r7, #4]
    3cf6:	2b0f      	cmp	r3, #15
    3cf8:	d10c      	bne.n	3d14 <IntEnable+0x88>
    3cfa:	f24e 0310 	movw	r3, #57360	; 0xe010
    3cfe:	f2ce 0300 	movt	r3, #57344	; 0xe000
    3d02:	f24e 0210 	movw	r2, #57360	; 0xe010
    3d06:	f2ce 0200 	movt	r2, #57344	; 0xe000
    3d0a:	6812      	ldr	r2, [r2, #0]
    3d0c:	f042 0202 	orr.w	r2, r2, #2
    3d10:	601a      	str	r2, [r3, #0]
    3d12:	e021      	b.n	3d58 <IntEnable+0xcc>
    3d14:	687b      	ldr	r3, [r7, #4]
    3d16:	2b0f      	cmp	r3, #15
    3d18:	d90f      	bls.n	3d3a <IntEnable+0xae>
    3d1a:	687b      	ldr	r3, [r7, #4]
    3d1c:	2b2f      	cmp	r3, #47	; 0x2f
    3d1e:	d80c      	bhi.n	3d3a <IntEnable+0xae>
    3d20:	f44f 4361 	mov.w	r3, #57600	; 0xe100
    3d24:	f2ce 0300 	movt	r3, #57344	; 0xe000
    3d28:	687a      	ldr	r2, [r7, #4]
    3d2a:	f1a2 0210 	sub.w	r2, r2, #16
    3d2e:	f04f 0101 	mov.w	r1, #1
    3d32:	fa01 f202 	lsl.w	r2, r1, r2
    3d36:	601a      	str	r2, [r3, #0]
    3d38:	e00e      	b.n	3d58 <IntEnable+0xcc>
    3d3a:	687b      	ldr	r3, [r7, #4]
    3d3c:	2b2f      	cmp	r3, #47	; 0x2f
    3d3e:	d90b      	bls.n	3d58 <IntEnable+0xcc>
    3d40:	f24e 1304 	movw	r3, #57604	; 0xe104
    3d44:	f2ce 0300 	movt	r3, #57344	; 0xe000
    3d48:	687a      	ldr	r2, [r7, #4]
    3d4a:	f1a2 0230 	sub.w	r2, r2, #48	; 0x30
    3d4e:	f04f 0101 	mov.w	r1, #1
    3d52:	fa01 f202 	lsl.w	r2, r1, r2
    3d56:	601a      	str	r2, [r3, #0]
    3d58:	f107 070c 	add.w	r7, r7, #12
    3d5c:	46bd      	mov	sp, r7
    3d5e:	bc80      	pop	{r7}
    3d60:	4770      	bx	lr
    3d62:	bf00      	nop

00003d64 <IntDisable>:
    3d64:	b480      	push	{r7}
    3d66:	b083      	sub	sp, #12
    3d68:	af00      	add	r7, sp, #0
    3d6a:	6078      	str	r0, [r7, #4]
    3d6c:	687b      	ldr	r3, [r7, #4]
    3d6e:	2b04      	cmp	r3, #4
    3d70:	d10c      	bne.n	3d8c <IntDisable+0x28>
    3d72:	f64e 5324 	movw	r3, #60708	; 0xed24
    3d76:	f2ce 0300 	movt	r3, #57344	; 0xe000
    3d7a:	f64e 5224 	movw	r2, #60708	; 0xed24
    3d7e:	f2ce 0200 	movt	r2, #57344	; 0xe000
    3d82:	6812      	ldr	r2, [r2, #0]
    3d84:	f422 3280 	bic.w	r2, r2, #65536	; 0x10000
    3d88:	601a      	str	r2, [r3, #0]
    3d8a:	e051      	b.n	3e30 <IntDisable+0xcc>
    3d8c:	687b      	ldr	r3, [r7, #4]
    3d8e:	2b05      	cmp	r3, #5
    3d90:	d10c      	bne.n	3dac <IntDisable+0x48>
    3d92:	f64e 5324 	movw	r3, #60708	; 0xed24
    3d96:	f2ce 0300 	movt	r3, #57344	; 0xe000
    3d9a:	f64e 5224 	movw	r2, #60708	; 0xed24
    3d9e:	f2ce 0200 	movt	r2, #57344	; 0xe000
    3da2:	6812      	ldr	r2, [r2, #0]
    3da4:	f422 3200 	bic.w	r2, r2, #131072	; 0x20000
    3da8:	601a      	str	r2, [r3, #0]
    3daa:	e041      	b.n	3e30 <IntDisable+0xcc>
    3dac:	687b      	ldr	r3, [r7, #4]
    3dae:	2b06      	cmp	r3, #6
    3db0:	d10c      	bne.n	3dcc <IntDisable+0x68>
    3db2:	f64e 5324 	movw	r3, #60708	; 0xed24
    3db6:	f2ce 0300 	movt	r3, #57344	; 0xe000
    3dba:	f64e 5224 	movw	r2, #60708	; 0xed24
    3dbe:	f2ce 0200 	movt	r2, #57344	; 0xe000
    3dc2:	6812      	ldr	r2, [r2, #0]
    3dc4:	f422 2280 	bic.w	r2, r2, #262144	; 0x40000
    3dc8:	601a      	str	r2, [r3, #0]
    3dca:	e031      	b.n	3e30 <IntDisable+0xcc>
    3dcc:	687b      	ldr	r3, [r7, #4]
    3dce:	2b0f      	cmp	r3, #15
    3dd0:	d10c      	bne.n	3dec <IntDisable+0x88>
    3dd2:	f24e 0310 	movw	r3, #57360	; 0xe010
    3dd6:	f2ce 0300 	movt	r3, #57344	; 0xe000
    3dda:	f24e 0210 	movw	r2, #57360	; 0xe010
    3dde:	f2ce 0200 	movt	r2, #57344	; 0xe000
    3de2:	6812      	ldr	r2, [r2, #0]
    3de4:	f022 0202 	bic.w	r2, r2, #2
    3de8:	601a      	str	r2, [r3, #0]
    3dea:	e021      	b.n	3e30 <IntDisable+0xcc>
    3dec:	687b      	ldr	r3, [r7, #4]
    3dee:	2b0f      	cmp	r3, #15
    3df0:	d90f      	bls.n	3e12 <IntDisable+0xae>
    3df2:	687b      	ldr	r3, [r7, #4]
    3df4:	2b2f      	cmp	r3, #47	; 0x2f
    3df6:	d80c      	bhi.n	3e12 <IntDisable+0xae>
    3df8:	f24e 1380 	movw	r3, #57728	; 0xe180
    3dfc:	f2ce 0300 	movt	r3, #57344	; 0xe000
    3e00:	687a      	ldr	r2, [r7, #4]
    3e02:	f1a2 0210 	sub.w	r2, r2, #16
    3e06:	f04f 0101 	mov.w	r1, #1
    3e0a:	fa01 f202 	lsl.w	r2, r1, r2
    3e0e:	601a      	str	r2, [r3, #0]
    3e10:	e00e      	b.n	3e30 <IntDisable+0xcc>
    3e12:	687b      	ldr	r3, [r7, #4]
    3e14:	2b2f      	cmp	r3, #47	; 0x2f
    3e16:	d90b      	bls.n	3e30 <IntDisable+0xcc>
    3e18:	f24e 1384 	movw	r3, #57732	; 0xe184
    3e1c:	f2ce 0300 	movt	r3, #57344	; 0xe000
    3e20:	687a      	ldr	r2, [r7, #4]
    3e22:	f1a2 0230 	sub.w	r2, r2, #48	; 0x30
    3e26:	f04f 0101 	mov.w	r1, #1
    3e2a:	fa01 f202 	lsl.w	r2, r1, r2
    3e2e:	601a      	str	r2, [r3, #0]
    3e30:	f107 070c 	add.w	r7, r7, #12
    3e34:	46bd      	mov	sp, r7
    3e36:	bc80      	pop	{r7}
    3e38:	4770      	bx	lr
    3e3a:	bf00      	nop

00003e3c <Default_Reset_Handler>:
    3e3c:	b580      	push	{r7, lr}
    3e3e:	b082      	sub	sp, #8
    3e40:	af00      	add	r7, sp, #0
    3e42:	f646 2338 	movw	r3, #27192	; 0x6a38
    3e46:	f2c0 0300 	movt	r3, #0
    3e4a:	607b      	str	r3, [r7, #4]
    3e4c:	f240 0300 	movw	r3, #0
    3e50:	f2c2 0300 	movt	r3, #8192	; 0x2000
    3e54:	603b      	str	r3, [r7, #0]
    3e56:	e00b      	b.n	3e70 <Default_Reset_Handler+0x34>
    3e58:	687b      	ldr	r3, [r7, #4]
    3e5a:	681a      	ldr	r2, [r3, #0]
    3e5c:	683b      	ldr	r3, [r7, #0]
    3e5e:	601a      	str	r2, [r3, #0]
    3e60:	683b      	ldr	r3, [r7, #0]
    3e62:	f103 0304 	add.w	r3, r3, #4
    3e66:	603b      	str	r3, [r7, #0]
    3e68:	687b      	ldr	r3, [r7, #4]
    3e6a:	f103 0304 	add.w	r3, r3, #4
    3e6e:	607b      	str	r3, [r7, #4]
    3e70:	683a      	ldr	r2, [r7, #0]
    3e72:	f240 0310 	movw	r3, #16
    3e76:	f2c2 0300 	movt	r3, #8192	; 0x2000
    3e7a:	429a      	cmp	r2, r3
    3e7c:	d3ec      	bcc.n	3e58 <Default_Reset_Handler+0x1c>
    3e7e:	4807      	ldr	r0, [pc, #28]	; (3e9c <zero_loop+0x16>)
    3e80:	4907      	ldr	r1, [pc, #28]	; (3ea0 <zero_loop+0x1a>)
    3e82:	f04f 0200 	mov.w	r2, #0

00003e86 <zero_loop>:
    3e86:	4288      	cmp	r0, r1
    3e88:	bfb8      	it	lt
    3e8a:	f840 2b04 	strlt.w	r2, [r0], #4
    3e8e:	dbfa      	blt.n	3e86 <zero_loop>
    3e90:	f7fd fa48 	bl	1324 <main>
    3e94:	f107 0708 	add.w	r7, r7, #8
    3e98:	46bd      	mov	sp, r7
    3e9a:	bd80      	pop	{r7, pc}
    3e9c:	20000010 	.word	0x20000010
    3ea0:	20002af0 	.word	0x20002af0

00003ea4 <ADCSeq0_IRQHandler>:
    3ea4:	b480      	push	{r7}
    3ea6:	af00      	add	r7, sp, #0
    3ea8:	e7fe      	b.n	3ea8 <ADCSeq0_IRQHandler+0x4>
    3eaa:	bf00      	nop

00003eac <vListInitialise>:
    3eac:	b480      	push	{r7}
    3eae:	b083      	sub	sp, #12
    3eb0:	af00      	add	r7, sp, #0
    3eb2:	6078      	str	r0, [r7, #4]
    3eb4:	687b      	ldr	r3, [r7, #4]
    3eb6:	f103 0208 	add.w	r2, r3, #8
    3eba:	687b      	ldr	r3, [r7, #4]
    3ebc:	605a      	str	r2, [r3, #4]
    3ebe:	687b      	ldr	r3, [r7, #4]
    3ec0:	f04f 32ff 	mov.w	r2, #4294967295
    3ec4:	609a      	str	r2, [r3, #8]
    3ec6:	687b      	ldr	r3, [r7, #4]
    3ec8:	f103 0208 	add.w	r2, r3, #8
    3ecc:	687b      	ldr	r3, [r7, #4]
    3ece:	60da      	str	r2, [r3, #12]
    3ed0:	687b      	ldr	r3, [r7, #4]
    3ed2:	f103 0208 	add.w	r2, r3, #8
    3ed6:	687b      	ldr	r3, [r7, #4]
    3ed8:	611a      	str	r2, [r3, #16]
    3eda:	687b      	ldr	r3, [r7, #4]
    3edc:	f04f 0200 	mov.w	r2, #0
    3ee0:	601a      	str	r2, [r3, #0]
    3ee2:	f107 070c 	add.w	r7, r7, #12
    3ee6:	46bd      	mov	sp, r7
    3ee8:	bc80      	pop	{r7}
    3eea:	4770      	bx	lr

00003eec <vListInitialiseItem>:
    3eec:	b480      	push	{r7}
    3eee:	b083      	sub	sp, #12
    3ef0:	af00      	add	r7, sp, #0
    3ef2:	6078      	str	r0, [r7, #4]
    3ef4:	687b      	ldr	r3, [r7, #4]
    3ef6:	f04f 0200 	mov.w	r2, #0
    3efa:	611a      	str	r2, [r3, #16]
    3efc:	f107 070c 	add.w	r7, r7, #12
    3f00:	46bd      	mov	sp, r7
    3f02:	bc80      	pop	{r7}
    3f04:	4770      	bx	lr
    3f06:	bf00      	nop

00003f08 <vListInsertEnd>:
    3f08:	b480      	push	{r7}
    3f0a:	b085      	sub	sp, #20
    3f0c:	af00      	add	r7, sp, #0
    3f0e:	6078      	str	r0, [r7, #4]
    3f10:	6039      	str	r1, [r7, #0]
    3f12:	687b      	ldr	r3, [r7, #4]
    3f14:	685b      	ldr	r3, [r3, #4]
    3f16:	60fb      	str	r3, [r7, #12]
    3f18:	68fb      	ldr	r3, [r7, #12]
    3f1a:	685b      	ldr	r3, [r3, #4]
    3f1c:	461a      	mov	r2, r3
    3f1e:	683b      	ldr	r3, [r7, #0]
    3f20:	605a      	str	r2, [r3, #4]
    3f22:	687b      	ldr	r3, [r7, #4]
    3f24:	685a      	ldr	r2, [r3, #4]
    3f26:	683b      	ldr	r3, [r7, #0]
    3f28:	609a      	str	r2, [r3, #8]
    3f2a:	68fb      	ldr	r3, [r7, #12]
    3f2c:	685b      	ldr	r3, [r3, #4]
    3f2e:	683a      	ldr	r2, [r7, #0]
    3f30:	609a      	str	r2, [r3, #8]
    3f32:	68fb      	ldr	r3, [r7, #12]
    3f34:	683a      	ldr	r2, [r7, #0]
    3f36:	605a      	str	r2, [r3, #4]
    3f38:	687b      	ldr	r3, [r7, #4]
    3f3a:	683a      	ldr	r2, [r7, #0]
    3f3c:	605a      	str	r2, [r3, #4]
    3f3e:	683b      	ldr	r3, [r7, #0]
    3f40:	687a      	ldr	r2, [r7, #4]
    3f42:	611a      	str	r2, [r3, #16]
    3f44:	687b      	ldr	r3, [r7, #4]
    3f46:	681b      	ldr	r3, [r3, #0]
    3f48:	f103 0201 	add.w	r2, r3, #1
    3f4c:	687b      	ldr	r3, [r7, #4]
    3f4e:	601a      	str	r2, [r3, #0]
    3f50:	f107 0714 	add.w	r7, r7, #20
    3f54:	46bd      	mov	sp, r7
    3f56:	bc80      	pop	{r7}
    3f58:	4770      	bx	lr
    3f5a:	bf00      	nop

00003f5c <vListInsert>:
    3f5c:	b480      	push	{r7}
    3f5e:	b085      	sub	sp, #20
    3f60:	af00      	add	r7, sp, #0
    3f62:	6078      	str	r0, [r7, #4]
    3f64:	6039      	str	r1, [r7, #0]
    3f66:	683b      	ldr	r3, [r7, #0]
    3f68:	681b      	ldr	r3, [r3, #0]
    3f6a:	60bb      	str	r3, [r7, #8]
    3f6c:	68bb      	ldr	r3, [r7, #8]
    3f6e:	f1b3 3fff 	cmp.w	r3, #4294967295
    3f72:	d103      	bne.n	3f7c <vListInsert+0x20>
    3f74:	687b      	ldr	r3, [r7, #4]
    3f76:	691b      	ldr	r3, [r3, #16]
    3f78:	60fb      	str	r3, [r7, #12]
    3f7a:	e00e      	b.n	3f9a <vListInsert+0x3e>
    3f7c:	687b      	ldr	r3, [r7, #4]
    3f7e:	f103 0308 	add.w	r3, r3, #8
    3f82:	60fb      	str	r3, [r7, #12]
    3f84:	e002      	b.n	3f8c <vListInsert+0x30>
    3f86:	68fb      	ldr	r3, [r7, #12]
    3f88:	685b      	ldr	r3, [r3, #4]
    3f8a:	60fb      	str	r3, [r7, #12]
    3f8c:	68fb      	ldr	r3, [r7, #12]
    3f8e:	685b      	ldr	r3, [r3, #4]
    3f90:	681b      	ldr	r3, [r3, #0]
    3f92:	461a      	mov	r2, r3
    3f94:	68bb      	ldr	r3, [r7, #8]
    3f96:	429a      	cmp	r2, r3
    3f98:	d9f5      	bls.n	3f86 <vListInsert+0x2a>
    3f9a:	68fb      	ldr	r3, [r7, #12]
    3f9c:	685b      	ldr	r3, [r3, #4]
    3f9e:	461a      	mov	r2, r3
    3fa0:	683b      	ldr	r3, [r7, #0]
    3fa2:	605a      	str	r2, [r3, #4]
    3fa4:	683b      	ldr	r3, [r7, #0]
    3fa6:	685b      	ldr	r3, [r3, #4]
    3fa8:	683a      	ldr	r2, [r7, #0]
    3faa:	609a      	str	r2, [r3, #8]
    3fac:	683b      	ldr	r3, [r7, #0]
    3fae:	68fa      	ldr	r2, [r7, #12]
    3fb0:	609a      	str	r2, [r3, #8]
    3fb2:	68fb      	ldr	r3, [r7, #12]
    3fb4:	683a      	ldr	r2, [r7, #0]
    3fb6:	605a      	str	r2, [r3, #4]
    3fb8:	683b      	ldr	r3, [r7, #0]
    3fba:	687a      	ldr	r2, [r7, #4]
    3fbc:	611a      	str	r2, [r3, #16]
    3fbe:	687b      	ldr	r3, [r7, #4]
    3fc0:	681b      	ldr	r3, [r3, #0]
    3fc2:	f103 0201 	add.w	r2, r3, #1
    3fc6:	687b      	ldr	r3, [r7, #4]
    3fc8:	601a      	str	r2, [r3, #0]
    3fca:	f107 0714 	add.w	r7, r7, #20
    3fce:	46bd      	mov	sp, r7
    3fd0:	bc80      	pop	{r7}
    3fd2:	4770      	bx	lr

00003fd4 <uxListRemove>:
    3fd4:	b480      	push	{r7}
    3fd6:	b085      	sub	sp, #20
    3fd8:	af00      	add	r7, sp, #0
    3fda:	6078      	str	r0, [r7, #4]
    3fdc:	687b      	ldr	r3, [r7, #4]
    3fde:	685b      	ldr	r3, [r3, #4]
    3fe0:	687a      	ldr	r2, [r7, #4]
    3fe2:	6892      	ldr	r2, [r2, #8]
    3fe4:	609a      	str	r2, [r3, #8]
    3fe6:	687b      	ldr	r3, [r7, #4]
    3fe8:	689b      	ldr	r3, [r3, #8]
    3fea:	687a      	ldr	r2, [r7, #4]
    3fec:	6852      	ldr	r2, [r2, #4]
    3fee:	605a      	str	r2, [r3, #4]
    3ff0:	687b      	ldr	r3, [r7, #4]
    3ff2:	691b      	ldr	r3, [r3, #16]
    3ff4:	60fb      	str	r3, [r7, #12]
    3ff6:	68fb      	ldr	r3, [r7, #12]
    3ff8:	685a      	ldr	r2, [r3, #4]
    3ffa:	687b      	ldr	r3, [r7, #4]
    3ffc:	429a      	cmp	r2, r3
    3ffe:	d103      	bne.n	4008 <uxListRemove+0x34>
    4000:	687b      	ldr	r3, [r7, #4]
    4002:	689a      	ldr	r2, [r3, #8]
    4004:	68fb      	ldr	r3, [r7, #12]
    4006:	605a      	str	r2, [r3, #4]
    4008:	687b      	ldr	r3, [r7, #4]
    400a:	f04f 0200 	mov.w	r2, #0
    400e:	611a      	str	r2, [r3, #16]
    4010:	68fb      	ldr	r3, [r7, #12]
    4012:	681b      	ldr	r3, [r3, #0]
    4014:	f103 32ff 	add.w	r2, r3, #4294967295
    4018:	68fb      	ldr	r3, [r7, #12]
    401a:	601a      	str	r2, [r3, #0]
    401c:	68fb      	ldr	r3, [r7, #12]
    401e:	681b      	ldr	r3, [r3, #0]
    4020:	4618      	mov	r0, r3
    4022:	f107 0714 	add.w	r7, r7, #20
    4026:	46bd      	mov	sp, r7
    4028:	bc80      	pop	{r7}
    402a:	4770      	bx	lr

0000402c <StatusLEDInit>:
    402c:	b580      	push	{r7, lr}
    402e:	b088      	sub	sp, #32
    4030:	af04      	add	r7, sp, #16
    4032:	6078      	str	r0, [r7, #4]
    4034:	f04f 0020 	mov.w	r0, #32
    4038:	f2c2 0000 	movt	r0, #8192	; 0x2000
    403c:	f7fd fe34 	bl	1ca8 <SysCtlPeripheralEnable>
    4040:	f44f 40a0 	mov.w	r0, #20480	; 0x5000
    4044:	f2c4 0002 	movt	r0, #16386	; 0x4002
    4048:	f04f 0104 	mov.w	r1, #4
    404c:	f7fe fe5e 	bl	2d0c <GPIOPinTypeGPIOOutput>
    4050:	f04f 0300 	mov.w	r3, #0
    4054:	81fb      	strh	r3, [r7, #14]
    4056:	e00d      	b.n	4074 <StatusLEDInit+0x48>
    4058:	f9b7 200e 	ldrsh.w	r2, [r7, #14]
    405c:	f642 23dc 	movw	r3, #10972	; 0x2adc
    4060:	f2c2 0300 	movt	r3, #8192	; 0x2000
    4064:	f04f 0100 	mov.w	r1, #0
    4068:	f823 1012 	strh.w	r1, [r3, r2, lsl #1]
    406c:	89fb      	ldrh	r3, [r7, #14]
    406e:	f103 0301 	add.w	r3, r3, #1
    4072:	81fb      	strh	r3, [r7, #14]
    4074:	f9b7 300e 	ldrsh.w	r3, [r7, #14]
    4078:	2b09      	cmp	r3, #9
    407a:	dded      	ble.n	4058 <StatusLEDInit+0x2c>
    407c:	f642 23dc 	movw	r3, #10972	; 0x2adc
    4080:	f2c2 0300 	movt	r3, #8192	; 0x2000
    4084:	f04f 0201 	mov.w	r2, #1
    4088:	805a      	strh	r2, [r3, #2]
    408a:	687b      	ldr	r3, [r7, #4]
    408c:	9300      	str	r3, [sp, #0]
    408e:	f04f 0300 	mov.w	r3, #0
    4092:	9301      	str	r3, [sp, #4]
    4094:	f04f 0300 	mov.w	r3, #0
    4098:	9302      	str	r3, [sp, #8]
    409a:	f04f 0300 	mov.w	r3, #0
    409e:	9303      	str	r3, [sp, #12]
    40a0:	f244 00c9 	movw	r0, #16585	; 0x40c9
    40a4:	f2c0 0000 	movt	r0, #0
    40a8:	f646 212c 	movw	r1, #27180	; 0x6a2c
    40ac:	f2c0 0100 	movt	r1, #0
    40b0:	f44f 7280 	mov.w	r2, #256	; 0x100
    40b4:	f04f 0300 	mov.w	r3, #0
    40b8:	f7fe feaa 	bl	2e10 <xTaskGenericCreate>
    40bc:	4603      	mov	r3, r0
    40be:	4618      	mov	r0, r3
    40c0:	f107 0710 	add.w	r7, r7, #16
    40c4:	46bd      	mov	sp, r7
    40c6:	bd80      	pop	{r7, pc}

000040c8 <StatusLED_task>:
    40c8:	b580      	push	{r7, lr}
    40ca:	b084      	sub	sp, #16
    40cc:	af00      	add	r7, sp, #0
    40ce:	6078      	str	r0, [r7, #4]
    40d0:	f04f 0301 	mov.w	r3, #1
    40d4:	81bb      	strh	r3, [r7, #12]
    40d6:	e03c      	b.n	4152 <StatusLED_task+0x8a>
    40d8:	f9b7 200c 	ldrsh.w	r2, [r7, #12]
    40dc:	f642 23dc 	movw	r3, #10972	; 0x2adc
    40e0:	f2c2 0300 	movt	r3, #8192	; 0x2000
    40e4:	f833 3012 	ldrh.w	r3, [r3, r2, lsl #1]
    40e8:	b21b      	sxth	r3, r3
    40ea:	2b00      	cmp	r3, #0
    40ec:	dd2d      	ble.n	414a <StatusLED_task+0x82>
    40ee:	f04f 0300 	mov.w	r3, #0
    40f2:	81fb      	strh	r3, [r7, #14]
    40f4:	e01f      	b.n	4136 <StatusLED_task+0x6e>
    40f6:	f44f 40a0 	mov.w	r0, #20480	; 0x5000
    40fa:	f2c4 0002 	movt	r0, #16386	; 0x4002
    40fe:	f04f 0104 	mov.w	r1, #4
    4102:	f04f 02fb 	mov.w	r2, #251	; 0xfb
    4106:	f7fe fdd1 	bl	2cac <GPIOPinWrite>
    410a:	f04f 0050 	mov.w	r0, #80	; 0x50
    410e:	f7fe ff73 	bl	2ff8 <vTaskDelay>
    4112:	f44f 40a0 	mov.w	r0, #20480	; 0x5000
    4116:	f2c4 0002 	movt	r0, #16386	; 0x4002
    411a:	f04f 0104 	mov.w	r1, #4
    411e:	f04f 0204 	mov.w	r2, #4
    4122:	f7fe fdc3 	bl	2cac <GPIOPinWrite>
    4126:	f44f 70a0 	mov.w	r0, #320	; 0x140
    412a:	f7fe ff65 	bl	2ff8 <vTaskDelay>
    412e:	89fb      	ldrh	r3, [r7, #14]
    4130:	f103 0301 	add.w	r3, r3, #1
    4134:	81fb      	strh	r3, [r7, #14]
    4136:	f9b7 200e 	ldrsh.w	r2, [r7, #14]
    413a:	f9b7 300c 	ldrsh.w	r3, [r7, #12]
    413e:	429a      	cmp	r2, r3
    4140:	dbd9      	blt.n	40f6 <StatusLED_task+0x2e>
    4142:	f44f 6096 	mov.w	r0, #1200	; 0x4b0
    4146:	f7fe ff57 	bl	2ff8 <vTaskDelay>
    414a:	89bb      	ldrh	r3, [r7, #12]
    414c:	f103 0301 	add.w	r3, r3, #1
    4150:	81bb      	strh	r3, [r7, #12]
    4152:	f9b7 300c 	ldrsh.w	r3, [r7, #12]
    4156:	2b09      	cmp	r3, #9
    4158:	ddbe      	ble.n	40d8 <StatusLED_task+0x10>
    415a:	e7b9      	b.n	40d0 <StatusLED_task+0x8>

0000415c <SetError>:
    415c:	b480      	push	{r7}
    415e:	b083      	sub	sp, #12
    4160:	af00      	add	r7, sp, #0
    4162:	4603      	mov	r3, r0
    4164:	71fb      	strb	r3, [r7, #7]
    4166:	79fb      	ldrb	r3, [r7, #7]
    4168:	2b09      	cmp	r3, #9
    416a:	d819      	bhi.n	41a0 <SetError+0x44>
    416c:	79fa      	ldrb	r2, [r7, #7]
    416e:	f642 23dc 	movw	r3, #10972	; 0x2adc
    4172:	f2c2 0300 	movt	r3, #8192	; 0x2000
    4176:	f833 3012 	ldrh.w	r3, [r3, r2, lsl #1]
    417a:	b21b      	sxth	r3, r3
    417c:	2bc7      	cmp	r3, #199	; 0xc7
    417e:	dc0f      	bgt.n	41a0 <SetError+0x44>
    4180:	79fa      	ldrb	r2, [r7, #7]
    4182:	f642 23dc 	movw	r3, #10972	; 0x2adc
    4186:	f2c2 0300 	movt	r3, #8192	; 0x2000
    418a:	f833 3012 	ldrh.w	r3, [r3, r2, lsl #1]
    418e:	f103 0301 	add.w	r3, r3, #1
    4192:	b299      	uxth	r1, r3
    4194:	f642 23dc 	movw	r3, #10972	; 0x2adc
    4198:	f2c2 0300 	movt	r3, #8192	; 0x2000
    419c:	f823 1012 	strh.w	r1, [r3, r2, lsl #1]
    41a0:	f107 070c 	add.w	r7, r7, #12
    41a4:	46bd      	mov	sp, r7
    41a6:	bc80      	pop	{r7}
    41a8:	4770      	bx	lr
    41aa:	bf00      	nop

000041ac <ClearError>:
    41ac:	b480      	push	{r7}
    41ae:	b083      	sub	sp, #12
    41b0:	af00      	add	r7, sp, #0
    41b2:	4603      	mov	r3, r0
    41b4:	71fb      	strb	r3, [r7, #7]
    41b6:	79fb      	ldrb	r3, [r7, #7]
    41b8:	2b09      	cmp	r3, #9
    41ba:	d812      	bhi.n	41e2 <ClearError+0x36>
    41bc:	79fa      	ldrb	r2, [r7, #7]
    41be:	f642 23dc 	movw	r3, #10972	; 0x2adc
    41c2:	f2c2 0300 	movt	r3, #8192	; 0x2000
    41c6:	f833 3012 	ldrh.w	r3, [r3, r2, lsl #1]
    41ca:	b21b      	sxth	r3, r3
    41cc:	2b00      	cmp	r3, #0
    41ce:	dd08      	ble.n	41e2 <ClearError+0x36>
    41d0:	79fa      	ldrb	r2, [r7, #7]
    41d2:	f642 23dc 	movw	r3, #10972	; 0x2adc
    41d6:	f2c2 0300 	movt	r3, #8192	; 0x2000
    41da:	f04f 0100 	mov.w	r1, #0
    41de:	f823 1012 	strh.w	r1, [r3, r2, lsl #1]
    41e2:	f107 070c 	add.w	r7, r7, #12
    41e6:	46bd      	mov	sp, r7
    41e8:	bc80      	pop	{r7}
    41ea:	4770      	bx	lr

000041ec <AccelerometerRead>:
    41ec:	b590      	push	{r4, r7, lr}
    41ee:	b083      	sub	sp, #12
    41f0:	af00      	add	r7, sp, #0
    41f2:	f04f 0000 	mov.w	r0, #0
    41f6:	f2c4 0002 	movt	r0, #16386	; 0x4002
    41fa:	f04f 0110 	mov.w	r1, #16
    41fe:	f04f 0200 	mov.w	r2, #0
    4202:	f7fc ff1f 	bl	1044 <I2CMasterSlaveAddrSet>
    4206:	f04f 0000 	mov.w	r0, #0
    420a:	f2c4 0002 	movt	r0, #16386	; 0x4002
    420e:	f04f 0101 	mov.w	r1, #1
    4212:	f7fc ff77 	bl	1104 <I2CMasterDataPut>
    4216:	f04f 0000 	mov.w	r0, #0
    421a:	f2c4 0002 	movt	r0, #16386	; 0x4002
    421e:	f04f 0107 	mov.w	r1, #7
    4222:	f7fc ff3b 	bl	109c <I2CMasterControl>
    4226:	bf00      	nop
    4228:	f04f 0000 	mov.w	r0, #0
    422c:	f2c4 0002 	movt	r0, #16386	; 0x4002
    4230:	f7fc ff1c 	bl	106c <I2CMasterBusy>
    4234:	4603      	mov	r3, r0
    4236:	2b00      	cmp	r3, #0
    4238:	d1f6      	bne.n	4228 <AccelerometerRead+0x3c>
    423a:	f04f 0000 	mov.w	r0, #0
    423e:	f2c4 0002 	movt	r0, #16386	; 0x4002
    4242:	f7fc ff3b 	bl	10bc <I2CMasterErr>
    4246:	4603      	mov	r3, r0
    4248:	603b      	str	r3, [r7, #0]
    424a:	683b      	ldr	r3, [r7, #0]
    424c:	2b00      	cmp	r3, #0
    424e:	d002      	beq.n	4256 <AccelerometerRead+0x6a>
    4250:	f64f 73ff 	movw	r3, #65535	; 0xffff
    4254:	80fb      	strh	r3, [r7, #6]
    4256:	f04f 0000 	mov.w	r0, #0
    425a:	f2c4 0002 	movt	r0, #16386	; 0x4002
    425e:	f04f 0110 	mov.w	r1, #16
    4262:	f04f 0201 	mov.w	r2, #1
    4266:	f7fc feed 	bl	1044 <I2CMasterSlaveAddrSet>
    426a:	f04f 0000 	mov.w	r0, #0
    426e:	f2c4 0002 	movt	r0, #16386	; 0x4002
    4272:	f04f 010b 	mov.w	r1, #11
    4276:	f7fc ff11 	bl	109c <I2CMasterControl>
    427a:	bf00      	nop
    427c:	f04f 0000 	mov.w	r0, #0
    4280:	f2c4 0002 	movt	r0, #16386	; 0x4002
    4284:	f7fc fef2 	bl	106c <I2CMasterBusy>
    4288:	4603      	mov	r3, r0
    428a:	2b00      	cmp	r3, #0
    428c:	d1f6      	bne.n	427c <AccelerometerRead+0x90>
    428e:	f240 13f0 	movw	r3, #496	; 0x1f0
    4292:	f2c2 0300 	movt	r3, #8192	; 0x2000
    4296:	f04f 0200 	mov.w	r2, #0
    429a:	801a      	strh	r2, [r3, #0]
    429c:	f04f 0000 	mov.w	r0, #0
    42a0:	f2c4 0002 	movt	r0, #16386	; 0x4002
    42a4:	f7fc ff3e 	bl	1124 <I2CMasterDataGet>
    42a8:	4603      	mov	r3, r0
    42aa:	ea4f 2303 	mov.w	r3, r3, lsl #8
    42ae:	b29a      	uxth	r2, r3
    42b0:	f240 13f0 	movw	r3, #496	; 0x1f0
    42b4:	f2c2 0300 	movt	r3, #8192	; 0x2000
    42b8:	801a      	strh	r2, [r3, #0]
    42ba:	f04f 0000 	mov.w	r0, #0
    42be:	f2c4 0002 	movt	r0, #16386	; 0x4002
    42c2:	f7fc fefb 	bl	10bc <I2CMasterErr>
    42c6:	4603      	mov	r3, r0
    42c8:	603b      	str	r3, [r7, #0]
    42ca:	683b      	ldr	r3, [r7, #0]
    42cc:	2b00      	cmp	r3, #0
    42ce:	d002      	beq.n	42d6 <AccelerometerRead+0xea>
    42d0:	f64f 73ff 	movw	r3, #65535	; 0xffff
    42d4:	80fb      	strh	r3, [r7, #6]
    42d6:	f04f 0000 	mov.w	r0, #0
    42da:	f2c4 0002 	movt	r0, #16386	; 0x4002
    42de:	f04f 0109 	mov.w	r1, #9
    42e2:	f7fc fedb 	bl	109c <I2CMasterControl>
    42e6:	bf00      	nop
    42e8:	f04f 0000 	mov.w	r0, #0
    42ec:	f2c4 0002 	movt	r0, #16386	; 0x4002
    42f0:	f7fc febc 	bl	106c <I2CMasterBusy>
    42f4:	4603      	mov	r3, r0
    42f6:	2b00      	cmp	r3, #0
    42f8:	d1f6      	bne.n	42e8 <AccelerometerRead+0xfc>
    42fa:	f240 13f0 	movw	r3, #496	; 0x1f0
    42fe:	f2c2 0300 	movt	r3, #8192	; 0x2000
    4302:	881b      	ldrh	r3, [r3, #0]
    4304:	b29c      	uxth	r4, r3
    4306:	f04f 0000 	mov.w	r0, #0
    430a:	f2c4 0002 	movt	r0, #16386	; 0x4002
    430e:	f7fc ff09 	bl	1124 <I2CMasterDataGet>
    4312:	4603      	mov	r3, r0
    4314:	b29b      	uxth	r3, r3
    4316:	b2db      	uxtb	r3, r3
    4318:	b29b      	uxth	r3, r3
    431a:	4323      	orrs	r3, r4
    431c:	b29b      	uxth	r3, r3
    431e:	b29a      	uxth	r2, r3
    4320:	f240 13f0 	movw	r3, #496	; 0x1f0
    4324:	f2c2 0300 	movt	r3, #8192	; 0x2000
    4328:	801a      	strh	r2, [r3, #0]
    432a:	f04f 0000 	mov.w	r0, #0
    432e:	f2c4 0002 	movt	r0, #16386	; 0x4002
    4332:	f7fc fec3 	bl	10bc <I2CMasterErr>
    4336:	4603      	mov	r3, r0
    4338:	603b      	str	r3, [r7, #0]
    433a:	683b      	ldr	r3, [r7, #0]
    433c:	2b00      	cmp	r3, #0
    433e:	d002      	beq.n	4346 <AccelerometerRead+0x15a>
    4340:	f64f 73ff 	movw	r3, #65535	; 0xffff
    4344:	80fb      	strh	r3, [r7, #6]
    4346:	f04f 0000 	mov.w	r0, #0
    434a:	f2c4 0002 	movt	r0, #16386	; 0x4002
    434e:	f04f 0109 	mov.w	r1, #9
    4352:	f7fc fea3 	bl	109c <I2CMasterControl>
    4356:	bf00      	nop
    4358:	f04f 0000 	mov.w	r0, #0
    435c:	f2c4 0002 	movt	r0, #16386	; 0x4002
    4360:	f7fc fe84 	bl	106c <I2CMasterBusy>
    4364:	4603      	mov	r3, r0
    4366:	2b00      	cmp	r3, #0
    4368:	d1f6      	bne.n	4358 <AccelerometerRead+0x16c>
    436a:	f240 13f0 	movw	r3, #496	; 0x1f0
    436e:	f2c2 0300 	movt	r3, #8192	; 0x2000
    4372:	f04f 0200 	mov.w	r2, #0
    4376:	805a      	strh	r2, [r3, #2]
    4378:	f04f 0000 	mov.w	r0, #0
    437c:	f2c4 0002 	movt	r0, #16386	; 0x4002
    4380:	f7fc fed0 	bl	1124 <I2CMasterDataGet>
    4384:	4603      	mov	r3, r0
    4386:	ea4f 2303 	mov.w	r3, r3, lsl #8
    438a:	b29a      	uxth	r2, r3
    438c:	f240 13f0 	movw	r3, #496	; 0x1f0
    4390:	f2c2 0300 	movt	r3, #8192	; 0x2000
    4394:	805a      	strh	r2, [r3, #2]
    4396:	f04f 0000 	mov.w	r0, #0
    439a:	f2c4 0002 	movt	r0, #16386	; 0x4002
    439e:	f7fc fe8d 	bl	10bc <I2CMasterErr>
    43a2:	4603      	mov	r3, r0
    43a4:	603b      	str	r3, [r7, #0]
    43a6:	683b      	ldr	r3, [r7, #0]
    43a8:	2b00      	cmp	r3, #0
    43aa:	d002      	beq.n	43b2 <AccelerometerRead+0x1c6>
    43ac:	f64f 73ff 	movw	r3, #65535	; 0xffff
    43b0:	80fb      	strh	r3, [r7, #6]
    43b2:	f04f 0000 	mov.w	r0, #0
    43b6:	f2c4 0002 	movt	r0, #16386	; 0x4002
    43ba:	f04f 0105 	mov.w	r1, #5
    43be:	f7fc fe6d 	bl	109c <I2CMasterControl>
    43c2:	bf00      	nop
    43c4:	f04f 0000 	mov.w	r0, #0
    43c8:	f2c4 0002 	movt	r0, #16386	; 0x4002
    43cc:	f7fc fe4e 	bl	106c <I2CMasterBusy>
    43d0:	4603      	mov	r3, r0
    43d2:	2b00      	cmp	r3, #0
    43d4:	d1f6      	bne.n	43c4 <AccelerometerRead+0x1d8>
    43d6:	f240 13f0 	movw	r3, #496	; 0x1f0
    43da:	f2c2 0300 	movt	r3, #8192	; 0x2000
    43de:	885b      	ldrh	r3, [r3, #2]
    43e0:	b29c      	uxth	r4, r3
    43e2:	f04f 0000 	mov.w	r0, #0
    43e6:	f2c4 0002 	movt	r0, #16386	; 0x4002
    43ea:	f7fc fe9b 	bl	1124 <I2CMasterDataGet>
    43ee:	4603      	mov	r3, r0
    43f0:	b29b      	uxth	r3, r3
    43f2:	b2db      	uxtb	r3, r3
    43f4:	b29b      	uxth	r3, r3
    43f6:	4323      	orrs	r3, r4
    43f8:	b29b      	uxth	r3, r3
    43fa:	b29a      	uxth	r2, r3
    43fc:	f240 13f0 	movw	r3, #496	; 0x1f0
    4400:	f2c2 0300 	movt	r3, #8192	; 0x2000
    4404:	805a      	strh	r2, [r3, #2]
    4406:	f04f 0000 	mov.w	r0, #0
    440a:	f2c4 0002 	movt	r0, #16386	; 0x4002
    440e:	f7fc fe55 	bl	10bc <I2CMasterErr>
    4412:	4603      	mov	r3, r0
    4414:	603b      	str	r3, [r7, #0]
    4416:	683b      	ldr	r3, [r7, #0]
    4418:	2b00      	cmp	r3, #0
    441a:	d002      	beq.n	4422 <AccelerometerRead+0x236>
    441c:	f64f 73ff 	movw	r3, #65535	; 0xffff
    4420:	80fb      	strh	r3, [r7, #6]
    4422:	88fb      	ldrh	r3, [r7, #6]
    4424:	b21b      	sxth	r3, r3
    4426:	4618      	mov	r0, r3
    4428:	f107 070c 	add.w	r7, r7, #12
    442c:	46bd      	mov	sp, r7
    442e:	bd90      	pop	{r4, r7, pc}

00004430 <AccelerometerBandgapTest>:
    4430:	b580      	push	{r7, lr}
    4432:	b082      	sub	sp, #8
    4434:	af00      	add	r7, sp, #0
    4436:	f04f 0300 	mov.w	r3, #0
    443a:	80fb      	strh	r3, [r7, #6]
    443c:	f04f 0000 	mov.w	r0, #0
    4440:	f2c4 0002 	movt	r0, #16386	; 0x4002
    4444:	f04f 0110 	mov.w	r1, #16
    4448:	f04f 0200 	mov.w	r2, #0
    444c:	f7fc fdfa 	bl	1044 <I2CMasterSlaveAddrSet>
    4450:	f04f 0000 	mov.w	r0, #0
    4454:	f2c4 0002 	movt	r0, #16386	; 0x4002
    4458:	f04f 0100 	mov.w	r1, #0
    445c:	f7fc fe52 	bl	1104 <I2CMasterDataPut>
    4460:	f04f 0000 	mov.w	r0, #0
    4464:	f2c4 0002 	movt	r0, #16386	; 0x4002
    4468:	f04f 0103 	mov.w	r1, #3
    446c:	f7fc fe16 	bl	109c <I2CMasterControl>
    4470:	bf00      	nop
    4472:	f04f 0000 	mov.w	r0, #0
    4476:	f2c4 0002 	movt	r0, #16386	; 0x4002
    447a:	f7fc fdf7 	bl	106c <I2CMasterBusy>
    447e:	4603      	mov	r3, r0
    4480:	2b00      	cmp	r3, #0
    4482:	d1f6      	bne.n	4472 <AccelerometerBandgapTest+0x42>
    4484:	f04f 0000 	mov.w	r0, #0
    4488:	f2c4 0002 	movt	r0, #16386	; 0x4002
    448c:	f7fc fe16 	bl	10bc <I2CMasterErr>
    4490:	4603      	mov	r3, r0
    4492:	603b      	str	r3, [r7, #0]
    4494:	683b      	ldr	r3, [r7, #0]
    4496:	2b00      	cmp	r3, #0
    4498:	d002      	beq.n	44a0 <AccelerometerBandgapTest+0x70>
    449a:	f64f 73ff 	movw	r3, #65535	; 0xffff
    449e:	80fb      	strh	r3, [r7, #6]
    44a0:	f04f 0000 	mov.w	r0, #0
    44a4:	f2c4 0002 	movt	r0, #16386	; 0x4002
    44a8:	f04f 0104 	mov.w	r1, #4
    44ac:	f7fc fe2a 	bl	1104 <I2CMasterDataPut>
    44b0:	f04f 0000 	mov.w	r0, #0
    44b4:	f2c4 0002 	movt	r0, #16386	; 0x4002
    44b8:	f04f 0105 	mov.w	r1, #5
    44bc:	f7fc fdee 	bl	109c <I2CMasterControl>
    44c0:	bf00      	nop
    44c2:	f04f 0000 	mov.w	r0, #0
    44c6:	f2c4 0002 	movt	r0, #16386	; 0x4002
    44ca:	f7fc fdcf 	bl	106c <I2CMasterBusy>
    44ce:	4603      	mov	r3, r0
    44d0:	2b00      	cmp	r3, #0
    44d2:	d1f6      	bne.n	44c2 <AccelerometerBandgapTest+0x92>
    44d4:	f04f 0000 	mov.w	r0, #0
    44d8:	f2c4 0002 	movt	r0, #16386	; 0x4002
    44dc:	f7fc fdee 	bl	10bc <I2CMasterErr>
    44e0:	4603      	mov	r3, r0
    44e2:	603b      	str	r3, [r7, #0]
    44e4:	683b      	ldr	r3, [r7, #0]
    44e6:	2b00      	cmp	r3, #0
    44e8:	d002      	beq.n	44f0 <AccelerometerBandgapTest+0xc0>
    44ea:	f64f 73ff 	movw	r3, #65535	; 0xffff
    44ee:	80fb      	strh	r3, [r7, #6]
    44f0:	f04f 0301 	mov.w	r3, #1
    44f4:	80bb      	strh	r3, [r7, #4]
    44f6:	e003      	b.n	4500 <AccelerometerBandgapTest+0xd0>
    44f8:	88bb      	ldrh	r3, [r7, #4]
    44fa:	f103 0301 	add.w	r3, r3, #1
    44fe:	80bb      	strh	r3, [r7, #4]
    4500:	88bb      	ldrh	r3, [r7, #4]
    4502:	2b00      	cmp	r3, #0
    4504:	d1f8      	bne.n	44f8 <AccelerometerBandgapTest+0xc8>
    4506:	f7ff fe71 	bl	41ec <AccelerometerRead>
    450a:	4603      	mov	r3, r0
    450c:	80fb      	strh	r3, [r7, #6]
    450e:	f7ff fe6d 	bl	41ec <AccelerometerRead>
    4512:	4603      	mov	r3, r0
    4514:	80fb      	strh	r3, [r7, #6]
    4516:	f7ff fe69 	bl	41ec <AccelerometerRead>
    451a:	4603      	mov	r3, r0
    451c:	80fb      	strh	r3, [r7, #6]
    451e:	f04f 0000 	mov.w	r0, #0
    4522:	f2c4 0002 	movt	r0, #16386	; 0x4002
    4526:	f04f 0110 	mov.w	r1, #16
    452a:	f04f 0200 	mov.w	r2, #0
    452e:	f7fc fd89 	bl	1044 <I2CMasterSlaveAddrSet>
    4532:	f04f 0000 	mov.w	r0, #0
    4536:	f2c4 0002 	movt	r0, #16386	; 0x4002
    453a:	f04f 0100 	mov.w	r1, #0
    453e:	f7fc fde1 	bl	1104 <I2CMasterDataPut>
    4542:	f04f 0000 	mov.w	r0, #0
    4546:	f2c4 0002 	movt	r0, #16386	; 0x4002
    454a:	f04f 0103 	mov.w	r1, #3
    454e:	f7fc fda5 	bl	109c <I2CMasterControl>
    4552:	bf00      	nop
    4554:	f04f 0000 	mov.w	r0, #0
    4558:	f2c4 0002 	movt	r0, #16386	; 0x4002
    455c:	f7fc fd86 	bl	106c <I2CMasterBusy>
    4560:	4603      	mov	r3, r0
    4562:	2b00      	cmp	r3, #0
    4564:	d1f6      	bne.n	4554 <AccelerometerBandgapTest+0x124>
    4566:	f04f 0000 	mov.w	r0, #0
    456a:	f2c4 0002 	movt	r0, #16386	; 0x4002
    456e:	f7fc fda5 	bl	10bc <I2CMasterErr>
    4572:	4603      	mov	r3, r0
    4574:	603b      	str	r3, [r7, #0]
    4576:	683b      	ldr	r3, [r7, #0]
    4578:	2b00      	cmp	r3, #0
    457a:	d002      	beq.n	4582 <AccelerometerBandgapTest+0x152>
    457c:	f64f 73ff 	movw	r3, #65535	; 0xffff
    4580:	80fb      	strh	r3, [r7, #6]
    4582:	f04f 0000 	mov.w	r0, #0
    4586:	f2c4 0002 	movt	r0, #16386	; 0x4002
    458a:	f04f 0100 	mov.w	r1, #0
    458e:	f7fc fdb9 	bl	1104 <I2CMasterDataPut>
    4592:	f04f 0000 	mov.w	r0, #0
    4596:	f2c4 0002 	movt	r0, #16386	; 0x4002
    459a:	f04f 0105 	mov.w	r1, #5
    459e:	f7fc fd7d 	bl	109c <I2CMasterControl>
    45a2:	bf00      	nop
    45a4:	f04f 0000 	mov.w	r0, #0
    45a8:	f2c4 0002 	movt	r0, #16386	; 0x4002
    45ac:	f7fc fd5e 	bl	106c <I2CMasterBusy>
    45b0:	4603      	mov	r3, r0
    45b2:	2b00      	cmp	r3, #0
    45b4:	d1f6      	bne.n	45a4 <AccelerometerBandgapTest+0x174>
    45b6:	f04f 0000 	mov.w	r0, #0
    45ba:	f2c4 0002 	movt	r0, #16386	; 0x4002
    45be:	f7fc fd7d 	bl	10bc <I2CMasterErr>
    45c2:	4603      	mov	r3, r0
    45c4:	603b      	str	r3, [r7, #0]
    45c6:	683b      	ldr	r3, [r7, #0]
    45c8:	2b00      	cmp	r3, #0
    45ca:	d002      	beq.n	45d2 <AccelerometerBandgapTest+0x1a2>
    45cc:	f64f 73ff 	movw	r3, #65535	; 0xffff
    45d0:	80fb      	strh	r3, [r7, #6]
    45d2:	88fb      	ldrh	r3, [r7, #6]
    45d4:	b21b      	sxth	r3, r3
    45d6:	4618      	mov	r0, r3
    45d8:	f107 0708 	add.w	r7, r7, #8
    45dc:	46bd      	mov	sp, r7
    45de:	bd80      	pop	{r7, pc}

000045e0 <AccelerometerPowerUp>:
    45e0:	b580      	push	{r7, lr}
    45e2:	b082      	sub	sp, #8
    45e4:	af00      	add	r7, sp, #0
    45e6:	f04f 0300 	mov.w	r3, #0
    45ea:	80fb      	strh	r3, [r7, #6]
    45ec:	f04f 0000 	mov.w	r0, #0
    45f0:	f2c4 0002 	movt	r0, #16386	; 0x4002
    45f4:	f04f 0110 	mov.w	r1, #16
    45f8:	f04f 0200 	mov.w	r2, #0
    45fc:	f7fc fd22 	bl	1044 <I2CMasterSlaveAddrSet>
    4600:	f04f 0000 	mov.w	r0, #0
    4604:	f2c4 0002 	movt	r0, #16386	; 0x4002
    4608:	f04f 0100 	mov.w	r1, #0
    460c:	f7fc fd7a 	bl	1104 <I2CMasterDataPut>
    4610:	f04f 0000 	mov.w	r0, #0
    4614:	f2c4 0002 	movt	r0, #16386	; 0x4002
    4618:	f04f 0103 	mov.w	r1, #3
    461c:	f7fc fd3e 	bl	109c <I2CMasterControl>
    4620:	bf00      	nop
    4622:	f04f 0000 	mov.w	r0, #0
    4626:	f2c4 0002 	movt	r0, #16386	; 0x4002
    462a:	f7fc fd1f 	bl	106c <I2CMasterBusy>
    462e:	4603      	mov	r3, r0
    4630:	2b00      	cmp	r3, #0
    4632:	d1f6      	bne.n	4622 <AccelerometerPowerUp+0x42>
    4634:	f04f 0000 	mov.w	r0, #0
    4638:	f2c4 0002 	movt	r0, #16386	; 0x4002
    463c:	f7fc fd3e 	bl	10bc <I2CMasterErr>
    4640:	4603      	mov	r3, r0
    4642:	603b      	str	r3, [r7, #0]
    4644:	683b      	ldr	r3, [r7, #0]
    4646:	2b00      	cmp	r3, #0
    4648:	d00a      	beq.n	4660 <AccelerometerPowerUp+0x80>
    464a:	683b      	ldr	r3, [r7, #0]
    464c:	2b04      	cmp	r3, #4
    464e:	d103      	bne.n	4658 <AccelerometerPowerUp+0x78>
    4650:	f64f 73ff 	movw	r3, #65535	; 0xffff
    4654:	80fb      	strh	r3, [r7, #6]
    4656:	e003      	b.n	4660 <AccelerometerPowerUp+0x80>
    4658:	f64f 73fe 	movw	r3, #65534	; 0xfffe
    465c:	80fb      	strh	r3, [r7, #6]
    465e:	bf00      	nop
    4660:	f04f 0000 	mov.w	r0, #0
    4664:	f2c4 0002 	movt	r0, #16386	; 0x4002
    4668:	f04f 0100 	mov.w	r1, #0
    466c:	f7fc fd4a 	bl	1104 <I2CMasterDataPut>
    4670:	f04f 0000 	mov.w	r0, #0
    4674:	f2c4 0002 	movt	r0, #16386	; 0x4002
    4678:	f04f 0105 	mov.w	r1, #5
    467c:	f7fc fd0e 	bl	109c <I2CMasterControl>
    4680:	bf00      	nop
    4682:	f04f 0000 	mov.w	r0, #0
    4686:	f2c4 0002 	movt	r0, #16386	; 0x4002
    468a:	f7fc fcef 	bl	106c <I2CMasterBusy>
    468e:	4603      	mov	r3, r0
    4690:	2b00      	cmp	r3, #0
    4692:	d1f6      	bne.n	4682 <AccelerometerPowerUp+0xa2>
    4694:	f04f 0000 	mov.w	r0, #0
    4698:	f2c4 0002 	movt	r0, #16386	; 0x4002
    469c:	f7fc fd0e 	bl	10bc <I2CMasterErr>
    46a0:	4603      	mov	r3, r0
    46a2:	603b      	str	r3, [r7, #0]
    46a4:	683b      	ldr	r3, [r7, #0]
    46a6:	2b00      	cmp	r3, #0
    46a8:	d00a      	beq.n	46c0 <AccelerometerPowerUp+0xe0>
    46aa:	683b      	ldr	r3, [r7, #0]
    46ac:	2b08      	cmp	r3, #8
    46ae:	d103      	bne.n	46b8 <AccelerometerPowerUp+0xd8>
    46b0:	f64f 73ff 	movw	r3, #65535	; 0xffff
    46b4:	80fb      	strh	r3, [r7, #6]
    46b6:	e003      	b.n	46c0 <AccelerometerPowerUp+0xe0>
    46b8:	f64f 73fe 	movw	r3, #65534	; 0xfffe
    46bc:	80fb      	strh	r3, [r7, #6]
    46be:	bf00      	nop
    46c0:	88fb      	ldrh	r3, [r7, #6]
    46c2:	b21b      	sxth	r3, r3
    46c4:	4618      	mov	r0, r3
    46c6:	f107 0708 	add.w	r7, r7, #8
    46ca:	46bd      	mov	sp, r7
    46cc:	bd80      	pop	{r7, pc}
    46ce:	bf00      	nop

000046d0 <AccelerometrInit>:
    46d0:	b580      	push	{r7, lr}
    46d2:	b088      	sub	sp, #32
    46d4:	af04      	add	r7, sp, #16
    46d6:	6078      	str	r0, [r7, #4]
    46d8:	f04f 2010 	mov.w	r0, #268439552	; 0x10001000
    46dc:	f7fd fae4 	bl	1ca8 <SysCtlPeripheralEnable>
    46e0:	f04f 0002 	mov.w	r0, #2
    46e4:	f2c2 0000 	movt	r0, #8192	; 0x2000
    46e8:	f7fd fade 	bl	1ca8 <SysCtlPeripheralEnable>
    46ec:	f44f 40a0 	mov.w	r0, #20480	; 0x5000
    46f0:	f2c4 0000 	movt	r0, #16384	; 0x4000
    46f4:	f04f 0104 	mov.w	r1, #4
    46f8:	f7fe fb22 	bl	2d40 <GPIOPinTypeI2C>
    46fc:	f44f 40a0 	mov.w	r0, #20480	; 0x5000
    4700:	f2c4 0000 	movt	r0, #16384	; 0x4000
    4704:	f04f 0108 	mov.w	r1, #8
    4708:	f7fe fb1a 	bl	2d40 <GPIOPinTypeI2C>
    470c:	f7fd fc36 	bl	1f7c <SysCtlClockGet>
    4710:	4603      	mov	r3, r0
    4712:	f04f 0000 	mov.w	r0, #0
    4716:	f2c4 0002 	movt	r0, #16386	; 0x4002
    471a:	4619      	mov	r1, r3
    471c:	f04f 0201 	mov.w	r2, #1
    4720:	f7fc fc42 	bl	fa8 <I2CMasterInitExpClk>
    4724:	f7ff ff5c 	bl	45e0 <AccelerometerPowerUp>
    4728:	4603      	mov	r3, r0
    472a:	81bb      	strh	r3, [r7, #12]
    472c:	f04f 0301 	mov.w	r3, #1
    4730:	81fb      	strh	r3, [r7, #14]
    4732:	e003      	b.n	473c <AccelerometrInit+0x6c>
    4734:	89fb      	ldrh	r3, [r7, #14]
    4736:	f103 0301 	add.w	r3, r3, #1
    473a:	81fb      	strh	r3, [r7, #14]
    473c:	89fb      	ldrh	r3, [r7, #14]
    473e:	2b00      	cmp	r3, #0
    4740:	d1f8      	bne.n	4734 <AccelerometrInit+0x64>
    4742:	f7ff fe75 	bl	4430 <AccelerometerBandgapTest>
    4746:	4603      	mov	r3, r0
    4748:	81bb      	strh	r3, [r7, #12]
    474a:	f9b7 300c 	ldrsh.w	r3, [r7, #12]
    474e:	2b08      	cmp	r3, #8
    4750:	dc02      	bgt.n	4758 <AccelerometrInit+0x88>
    4752:	f9b7 300c 	ldrsh.w	r3, [r7, #12]
    4756:	e019      	b.n	478c <AccelerometrInit+0xbc>
    4758:	687b      	ldr	r3, [r7, #4]
    475a:	9300      	str	r3, [sp, #0]
    475c:	f04f 0300 	mov.w	r3, #0
    4760:	9301      	str	r3, [sp, #4]
    4762:	f04f 0300 	mov.w	r3, #0
    4766:	9302      	str	r3, [sp, #8]
    4768:	f04f 0300 	mov.w	r3, #0
    476c:	9303      	str	r3, [sp, #12]
    476e:	f244 7099 	movw	r0, #18329	; 0x4799
    4772:	f2c0 0000 	movt	r0, #0
    4776:	f646 2130 	movw	r1, #27184	; 0x6a30
    477a:	f2c0 0100 	movt	r1, #0
    477e:	f44f 7280 	mov.w	r2, #256	; 0x100
    4782:	f04f 0300 	mov.w	r3, #0
    4786:	f7fe fb43 	bl	2e10 <xTaskGenericCreate>
    478a:	4603      	mov	r3, r0
    478c:	4618      	mov	r0, r3
    478e:	f107 0710 	add.w	r7, r7, #16
    4792:	46bd      	mov	sp, r7
    4794:	bd80      	pop	{r7, pc}
    4796:	bf00      	nop

00004798 <Accelerometer_task>:
    4798:	b580      	push	{r7, lr}
    479a:	b082      	sub	sp, #8
    479c:	af00      	add	r7, sp, #0
    479e:	6078      	str	r0, [r7, #4]
    47a0:	f7ff fd24 	bl	41ec <AccelerometerRead>
    47a4:	f04f 0010 	mov.w	r0, #16
    47a8:	f240 11f0 	movw	r1, #496	; 0x1f0
    47ac:	f2c2 0100 	movt	r1, #8192	; 0x2000
    47b0:	f04f 0204 	mov.w	r2, #4
    47b4:	f7fc fe7e 	bl	14b4 <SlipSend>
    47b8:	f04f 0014 	mov.w	r0, #20
    47bc:	f7fe fc1c 	bl	2ff8 <vTaskDelay>
    47c0:	e7ee      	b.n	47a0 <Accelerometer_task+0x8>
    47c2:	bf00      	nop

000047c4 <ADCIntStatus>:
    47c4:	b480      	push	{r7}
    47c6:	b087      	sub	sp, #28
    47c8:	af00      	add	r7, sp, #0
    47ca:	60f8      	str	r0, [r7, #12]
    47cc:	60b9      	str	r1, [r7, #8]
    47ce:	4613      	mov	r3, r2
    47d0:	71fb      	strb	r3, [r7, #7]
    47d2:	79fb      	ldrb	r3, [r7, #7]
    47d4:	2b00      	cmp	r3, #0
    47d6:	d00b      	beq.n	47f0 <ADCIntStatus+0x2c>
    47d8:	68fb      	ldr	r3, [r7, #12]
    47da:	f103 030c 	add.w	r3, r3, #12
    47de:	681a      	ldr	r2, [r3, #0]
    47e0:	68bb      	ldr	r3, [r7, #8]
    47e2:	f04f 1101 	mov.w	r1, #65537	; 0x10001
    47e6:	fa01 f303 	lsl.w	r3, r1, r3
    47ea:	4013      	ands	r3, r2
    47ec:	617b      	str	r3, [r7, #20]
    47ee:	e01f      	b.n	4830 <ADCIntStatus+0x6c>
    47f0:	68fb      	ldr	r3, [r7, #12]
    47f2:	f103 0304 	add.w	r3, r3, #4
    47f6:	681a      	ldr	r2, [r3, #0]
    47f8:	68bb      	ldr	r3, [r7, #8]
    47fa:	f04f 0101 	mov.w	r1, #1
    47fe:	fa01 f303 	lsl.w	r3, r1, r3
    4802:	f443 3380 	orr.w	r3, r3, #65536	; 0x10000
    4806:	4013      	ands	r3, r2
    4808:	617b      	str	r3, [r7, #20]
    480a:	697b      	ldr	r3, [r7, #20]
    480c:	f403 3380 	and.w	r3, r3, #65536	; 0x10000
    4810:	2b00      	cmp	r3, #0
    4812:	d00d      	beq.n	4830 <ADCIntStatus+0x6c>
    4814:	697b      	ldr	r3, [r7, #20]
    4816:	f443 2370 	orr.w	r3, r3, #983040	; 0xf0000
    481a:	617b      	str	r3, [r7, #20]
    481c:	68bb      	ldr	r3, [r7, #8]
    481e:	f44f 3280 	mov.w	r2, #65536	; 0x10000
    4822:	fa02 f303 	lsl.w	r3, r2, r3
    4826:	ea6f 0303 	mvn.w	r3, r3
    482a:	697a      	ldr	r2, [r7, #20]
    482c:	4013      	ands	r3, r2
    482e:	617b      	str	r3, [r7, #20]
    4830:	697b      	ldr	r3, [r7, #20]
    4832:	4618      	mov	r0, r3
    4834:	f107 071c 	add.w	r7, r7, #28
    4838:	46bd      	mov	sp, r7
    483a:	bc80      	pop	{r7}
    483c:	4770      	bx	lr
    483e:	bf00      	nop

00004840 <ADCSequenceEnable>:
    4840:	b480      	push	{r7}
    4842:	b083      	sub	sp, #12
    4844:	af00      	add	r7, sp, #0
    4846:	6078      	str	r0, [r7, #4]
    4848:	6039      	str	r1, [r7, #0]
    484a:	687b      	ldr	r3, [r7, #4]
    484c:	687a      	ldr	r2, [r7, #4]
    484e:	6811      	ldr	r1, [r2, #0]
    4850:	683a      	ldr	r2, [r7, #0]
    4852:	f04f 0001 	mov.w	r0, #1
    4856:	fa00 f202 	lsl.w	r2, r0, r2
    485a:	430a      	orrs	r2, r1
    485c:	601a      	str	r2, [r3, #0]
    485e:	f107 070c 	add.w	r7, r7, #12
    4862:	46bd      	mov	sp, r7
    4864:	bc80      	pop	{r7}
    4866:	4770      	bx	lr

00004868 <ADCSequenceDisable>:
    4868:	b480      	push	{r7}
    486a:	b083      	sub	sp, #12
    486c:	af00      	add	r7, sp, #0
    486e:	6078      	str	r0, [r7, #4]
    4870:	6039      	str	r1, [r7, #0]
    4872:	687b      	ldr	r3, [r7, #4]
    4874:	687a      	ldr	r2, [r7, #4]
    4876:	6811      	ldr	r1, [r2, #0]
    4878:	683a      	ldr	r2, [r7, #0]
    487a:	f04f 0001 	mov.w	r0, #1
    487e:	fa00 f202 	lsl.w	r2, r0, r2
    4882:	ea6f 0202 	mvn.w	r2, r2
    4886:	400a      	ands	r2, r1
    4888:	601a      	str	r2, [r3, #0]
    488a:	f107 070c 	add.w	r7, r7, #12
    488e:	46bd      	mov	sp, r7
    4890:	bc80      	pop	{r7}
    4892:	4770      	bx	lr

00004894 <ADCSequenceConfigure>:
    4894:	b480      	push	{r7}
    4896:	b085      	sub	sp, #20
    4898:	af00      	add	r7, sp, #0
    489a:	60f8      	str	r0, [r7, #12]
    489c:	60b9      	str	r1, [r7, #8]
    489e:	607a      	str	r2, [r7, #4]
    48a0:	603b      	str	r3, [r7, #0]
    48a2:	68bb      	ldr	r3, [r7, #8]
    48a4:	ea4f 0383 	mov.w	r3, r3, lsl #2
    48a8:	60bb      	str	r3, [r7, #8]
    48aa:	68fb      	ldr	r3, [r7, #12]
    48ac:	f103 0314 	add.w	r3, r3, #20
    48b0:	68fa      	ldr	r2, [r7, #12]
    48b2:	f102 0214 	add.w	r2, r2, #20
    48b6:	6811      	ldr	r1, [r2, #0]
    48b8:	68ba      	ldr	r2, [r7, #8]
    48ba:	f04f 000f 	mov.w	r0, #15
    48be:	fa00 f202 	lsl.w	r2, r0, r2
    48c2:	ea6f 0202 	mvn.w	r2, r2
    48c6:	4011      	ands	r1, r2
    48c8:	687a      	ldr	r2, [r7, #4]
    48ca:	f002 000f 	and.w	r0, r2, #15
    48ce:	68ba      	ldr	r2, [r7, #8]
    48d0:	fa00 f202 	lsl.w	r2, r0, r2
    48d4:	430a      	orrs	r2, r1
    48d6:	601a      	str	r2, [r3, #0]
    48d8:	68fb      	ldr	r3, [r7, #12]
    48da:	f103 0320 	add.w	r3, r3, #32
    48de:	68fa      	ldr	r2, [r7, #12]
    48e0:	f102 0220 	add.w	r2, r2, #32
    48e4:	6811      	ldr	r1, [r2, #0]
    48e6:	68ba      	ldr	r2, [r7, #8]
    48e8:	f04f 000f 	mov.w	r0, #15
    48ec:	fa00 f202 	lsl.w	r2, r0, r2
    48f0:	ea6f 0202 	mvn.w	r2, r2
    48f4:	4011      	ands	r1, r2
    48f6:	683a      	ldr	r2, [r7, #0]
    48f8:	f002 0003 	and.w	r0, r2, #3
    48fc:	68ba      	ldr	r2, [r7, #8]
    48fe:	fa00 f202 	lsl.w	r2, r0, r2
    4902:	430a      	orrs	r2, r1
    4904:	601a      	str	r2, [r3, #0]
    4906:	f107 0714 	add.w	r7, r7, #20
    490a:	46bd      	mov	sp, r7
    490c:	bc80      	pop	{r7}
    490e:	4770      	bx	lr

00004910 <ADCSequenceStepConfigure>:
    4910:	b480      	push	{r7}
    4912:	b087      	sub	sp, #28
    4914:	af00      	add	r7, sp, #0
    4916:	60f8      	str	r0, [r7, #12]
    4918:	60b9      	str	r1, [r7, #8]
    491a:	607a      	str	r2, [r7, #4]
    491c:	603b      	str	r3, [r7, #0]
    491e:	68bb      	ldr	r3, [r7, #8]
    4920:	f103 0302 	add.w	r3, r3, #2
    4924:	ea4f 1343 	mov.w	r3, r3, lsl #5
    4928:	68fa      	ldr	r2, [r7, #12]
    492a:	18d3      	adds	r3, r2, r3
    492c:	60fb      	str	r3, [r7, #12]
    492e:	687b      	ldr	r3, [r7, #4]
    4930:	ea4f 0383 	mov.w	r3, r3, lsl #2
    4934:	607b      	str	r3, [r7, #4]
    4936:	68fb      	ldr	r3, [r7, #12]
    4938:	68fa      	ldr	r2, [r7, #12]
    493a:	6811      	ldr	r1, [r2, #0]
    493c:	687a      	ldr	r2, [r7, #4]
    493e:	f04f 000f 	mov.w	r0, #15
    4942:	fa00 f202 	lsl.w	r2, r0, r2
    4946:	ea6f 0202 	mvn.w	r2, r2
    494a:	4011      	ands	r1, r2
    494c:	683a      	ldr	r2, [r7, #0]
    494e:	f002 000f 	and.w	r0, r2, #15
    4952:	687a      	ldr	r2, [r7, #4]
    4954:	fa00 f202 	lsl.w	r2, r0, r2
    4958:	430a      	orrs	r2, r1
    495a:	601a      	str	r2, [r3, #0]
    495c:	68fb      	ldr	r3, [r7, #12]
    495e:	f103 0304 	add.w	r3, r3, #4
    4962:	68fa      	ldr	r2, [r7, #12]
    4964:	f102 0204 	add.w	r2, r2, #4
    4968:	6811      	ldr	r1, [r2, #0]
    496a:	687a      	ldr	r2, [r7, #4]
    496c:	f04f 000f 	mov.w	r0, #15
    4970:	fa00 f202 	lsl.w	r2, r0, r2
    4974:	ea6f 0202 	mvn.w	r2, r2
    4978:	4011      	ands	r1, r2
    497a:	683a      	ldr	r2, [r7, #0]
    497c:	f002 02f0 	and.w	r2, r2, #240	; 0xf0
    4980:	ea4f 1012 	mov.w	r0, r2, lsr #4
    4984:	687a      	ldr	r2, [r7, #4]
    4986:	fa00 f202 	lsl.w	r2, r0, r2
    498a:	430a      	orrs	r2, r1
    498c:	601a      	str	r2, [r3, #0]
    498e:	683b      	ldr	r3, [r7, #0]
    4990:	f403 2370 	and.w	r3, r3, #983040	; 0xf0000
    4994:	2b00      	cmp	r3, #0
    4996:	d031      	beq.n	49fc <ADCSequenceStepConfigure+0xec>
    4998:	68fb      	ldr	r3, [r7, #12]
    499a:	f103 0314 	add.w	r3, r3, #20
    499e:	681b      	ldr	r3, [r3, #0]
    49a0:	617b      	str	r3, [r7, #20]
    49a2:	687b      	ldr	r3, [r7, #4]
    49a4:	f04f 020f 	mov.w	r2, #15
    49a8:	fa02 f303 	lsl.w	r3, r2, r3
    49ac:	ea6f 0303 	mvn.w	r3, r3
    49b0:	697a      	ldr	r2, [r7, #20]
    49b2:	4013      	ands	r3, r2
    49b4:	617b      	str	r3, [r7, #20]
    49b6:	683b      	ldr	r3, [r7, #0]
    49b8:	f403 23e0 	and.w	r3, r3, #458752	; 0x70000
    49bc:	ea4f 4213 	mov.w	r2, r3, lsr #16
    49c0:	687b      	ldr	r3, [r7, #4]
    49c2:	fa02 f303 	lsl.w	r3, r2, r3
    49c6:	697a      	ldr	r2, [r7, #20]
    49c8:	4313      	orrs	r3, r2
    49ca:	617b      	str	r3, [r7, #20]
    49cc:	68fb      	ldr	r3, [r7, #12]
    49ce:	f103 0314 	add.w	r3, r3, #20
    49d2:	697a      	ldr	r2, [r7, #20]
    49d4:	601a      	str	r2, [r3, #0]
    49d6:	68fb      	ldr	r3, [r7, #12]
    49d8:	f103 0310 	add.w	r3, r3, #16
    49dc:	681b      	ldr	r3, [r3, #0]
    49de:	617b      	str	r3, [r7, #20]
    49e0:	687b      	ldr	r3, [r7, #4]
    49e2:	f04f 0201 	mov.w	r2, #1
    49e6:	fa02 f303 	lsl.w	r3, r2, r3
    49ea:	697a      	ldr	r2, [r7, #20]
    49ec:	4313      	orrs	r3, r2
    49ee:	617b      	str	r3, [r7, #20]
    49f0:	68fb      	ldr	r3, [r7, #12]
    49f2:	f103 0310 	add.w	r3, r3, #16
    49f6:	697a      	ldr	r2, [r7, #20]
    49f8:	601a      	str	r2, [r3, #0]
    49fa:	e013      	b.n	4a24 <ADCSequenceStepConfigure+0x114>
    49fc:	68fb      	ldr	r3, [r7, #12]
    49fe:	f103 0310 	add.w	r3, r3, #16
    4a02:	681b      	ldr	r3, [r3, #0]
    4a04:	617b      	str	r3, [r7, #20]
    4a06:	687b      	ldr	r3, [r7, #4]
    4a08:	f04f 0201 	mov.w	r2, #1
    4a0c:	fa02 f303 	lsl.w	r3, r2, r3
    4a10:	ea6f 0303 	mvn.w	r3, r3
    4a14:	697a      	ldr	r2, [r7, #20]
    4a16:	4013      	ands	r3, r2
    4a18:	617b      	str	r3, [r7, #20]
    4a1a:	68fb      	ldr	r3, [r7, #12]
    4a1c:	f103 0310 	add.w	r3, r3, #16
    4a20:	697a      	ldr	r2, [r7, #20]
    4a22:	601a      	str	r2, [r3, #0]
    4a24:	f107 071c 	add.w	r7, r7, #28
    4a28:	46bd      	mov	sp, r7
    4a2a:	bc80      	pop	{r7}
    4a2c:	4770      	bx	lr
    4a2e:	bf00      	nop

00004a30 <ADCSequenceDataGet>:
    4a30:	b480      	push	{r7}
    4a32:	b087      	sub	sp, #28
    4a34:	af00      	add	r7, sp, #0
    4a36:	60f8      	str	r0, [r7, #12]
    4a38:	60b9      	str	r1, [r7, #8]
    4a3a:	607a      	str	r2, [r7, #4]
    4a3c:	68bb      	ldr	r3, [r7, #8]
    4a3e:	f103 0302 	add.w	r3, r3, #2
    4a42:	ea4f 1343 	mov.w	r3, r3, lsl #5
    4a46:	68fa      	ldr	r2, [r7, #12]
    4a48:	18d3      	adds	r3, r2, r3
    4a4a:	60fb      	str	r3, [r7, #12]
    4a4c:	f04f 0300 	mov.w	r3, #0
    4a50:	617b      	str	r3, [r7, #20]
    4a52:	e00d      	b.n	4a70 <ADCSequenceDataGet+0x40>
    4a54:	68fb      	ldr	r3, [r7, #12]
    4a56:	f103 0308 	add.w	r3, r3, #8
    4a5a:	681a      	ldr	r2, [r3, #0]
    4a5c:	687b      	ldr	r3, [r7, #4]
    4a5e:	601a      	str	r2, [r3, #0]
    4a60:	687b      	ldr	r3, [r7, #4]
    4a62:	f103 0304 	add.w	r3, r3, #4
    4a66:	607b      	str	r3, [r7, #4]
    4a68:	697b      	ldr	r3, [r7, #20]
    4a6a:	f103 0301 	add.w	r3, r3, #1
    4a6e:	617b      	str	r3, [r7, #20]
    4a70:	68fb      	ldr	r3, [r7, #12]
    4a72:	f103 030c 	add.w	r3, r3, #12
    4a76:	681b      	ldr	r3, [r3, #0]
    4a78:	f403 7380 	and.w	r3, r3, #256	; 0x100
    4a7c:	2b00      	cmp	r3, #0
    4a7e:	d102      	bne.n	4a86 <ADCSequenceDataGet+0x56>
    4a80:	697b      	ldr	r3, [r7, #20]
    4a82:	2b07      	cmp	r3, #7
    4a84:	d9e6      	bls.n	4a54 <ADCSequenceDataGet+0x24>
    4a86:	697b      	ldr	r3, [r7, #20]
    4a88:	4618      	mov	r0, r3
    4a8a:	f107 071c 	add.w	r7, r7, #28
    4a8e:	46bd      	mov	sp, r7
    4a90:	bc80      	pop	{r7}
    4a92:	4770      	bx	lr

00004a94 <ADCProcessorTrigger>:
    4a94:	b490      	push	{r4, r7}
    4a96:	b082      	sub	sp, #8
    4a98:	af00      	add	r7, sp, #0
    4a9a:	6078      	str	r0, [r7, #4]
    4a9c:	6039      	str	r1, [r7, #0]
    4a9e:	687b      	ldr	r3, [r7, #4]
    4aa0:	f103 0328 	add.w	r3, r3, #40	; 0x28
    4aa4:	461a      	mov	r2, r3
    4aa6:	687b      	ldr	r3, [r7, #4]
    4aa8:	f103 0328 	add.w	r3, r3, #40	; 0x28
    4aac:	6819      	ldr	r1, [r3, #0]
    4aae:	683b      	ldr	r3, [r7, #0]
    4ab0:	ea4f 4313 	mov.w	r3, r3, lsr #16
    4ab4:	ea4f 4303 	mov.w	r3, r3, lsl #16
    4ab8:	6838      	ldr	r0, [r7, #0]
    4aba:	f000 000f 	and.w	r0, r0, #15
    4abe:	f04f 0401 	mov.w	r4, #1
    4ac2:	fa04 f000 	lsl.w	r0, r4, r0
    4ac6:	4303      	orrs	r3, r0
    4ac8:	430b      	orrs	r3, r1
    4aca:	6013      	str	r3, [r2, #0]
    4acc:	f107 0708 	add.w	r7, r7, #8
    4ad0:	46bd      	mov	sp, r7
    4ad2:	bc90      	pop	{r4, r7}
    4ad4:	4770      	bx	lr
    4ad6:	bf00      	nop

00004ad8 <ADCHardwareOversampleConfigure>:
    4ad8:	b480      	push	{r7}
    4ada:	b085      	sub	sp, #20
    4adc:	af00      	add	r7, sp, #0
    4ade:	6078      	str	r0, [r7, #4]
    4ae0:	6039      	str	r1, [r7, #0]
    4ae2:	f04f 0300 	mov.w	r3, #0
    4ae6:	60fb      	str	r3, [r7, #12]
    4ae8:	683b      	ldr	r3, [r7, #0]
    4aea:	ea4f 0353 	mov.w	r3, r3, lsr #1
    4aee:	603b      	str	r3, [r7, #0]
    4af0:	e007      	b.n	4b02 <ADCHardwareOversampleConfigure+0x2a>
    4af2:	68fb      	ldr	r3, [r7, #12]
    4af4:	f103 0301 	add.w	r3, r3, #1
    4af8:	60fb      	str	r3, [r7, #12]
    4afa:	683b      	ldr	r3, [r7, #0]
    4afc:	ea4f 0353 	mov.w	r3, r3, lsr #1
    4b00:	603b      	str	r3, [r7, #0]
    4b02:	683b      	ldr	r3, [r7, #0]
    4b04:	2b00      	cmp	r3, #0
    4b06:	d1f4      	bne.n	4af2 <ADCHardwareOversampleConfigure+0x1a>
    4b08:	687b      	ldr	r3, [r7, #4]
    4b0a:	f103 0330 	add.w	r3, r3, #48	; 0x30
    4b0e:	68fa      	ldr	r2, [r7, #12]
    4b10:	601a      	str	r2, [r3, #0]
    4b12:	f107 0714 	add.w	r7, r7, #20
    4b16:	46bd      	mov	sp, r7
    4b18:	bc80      	pop	{r7}
    4b1a:	4770      	bx	lr

00004b1c <xQueueGenericReset>:
    4b1c:	b580      	push	{r7, lr}
    4b1e:	b082      	sub	sp, #8
    4b20:	af00      	add	r7, sp, #0
    4b22:	6078      	str	r0, [r7, #4]
    4b24:	6039      	str	r1, [r7, #0]
    4b26:	687b      	ldr	r3, [r7, #4]
    4b28:	2b00      	cmp	r3, #0
    4b2a:	d102      	bne.n	4b32 <xQueueGenericReset+0x16>
    4b2c:	f000 fce2 	bl	54f4 <ulPortSetInterruptMask>
    4b30:	e7fe      	b.n	4b30 <xQueueGenericReset+0x14>
    4b32:	f000 fcb3 	bl	549c <vPortEnterCritical>
    4b36:	687b      	ldr	r3, [r7, #4]
    4b38:	681a      	ldr	r2, [r3, #0]
    4b3a:	687b      	ldr	r3, [r7, #4]
    4b3c:	6bdb      	ldr	r3, [r3, #60]	; 0x3c
    4b3e:	6879      	ldr	r1, [r7, #4]
    4b40:	6c09      	ldr	r1, [r1, #64]	; 0x40
    4b42:	fb01 f303 	mul.w	r3, r1, r3
    4b46:	18d2      	adds	r2, r2, r3
    4b48:	687b      	ldr	r3, [r7, #4]
    4b4a:	605a      	str	r2, [r3, #4]
    4b4c:	687b      	ldr	r3, [r7, #4]
    4b4e:	f04f 0200 	mov.w	r2, #0
    4b52:	639a      	str	r2, [r3, #56]	; 0x38
    4b54:	687b      	ldr	r3, [r7, #4]
    4b56:	681a      	ldr	r2, [r3, #0]
    4b58:	687b      	ldr	r3, [r7, #4]
    4b5a:	609a      	str	r2, [r3, #8]
    4b5c:	687b      	ldr	r3, [r7, #4]
    4b5e:	681a      	ldr	r2, [r3, #0]
    4b60:	687b      	ldr	r3, [r7, #4]
    4b62:	6bdb      	ldr	r3, [r3, #60]	; 0x3c
    4b64:	f103 33ff 	add.w	r3, r3, #4294967295
    4b68:	6879      	ldr	r1, [r7, #4]
    4b6a:	6c09      	ldr	r1, [r1, #64]	; 0x40
    4b6c:	fb01 f303 	mul.w	r3, r1, r3
    4b70:	18d2      	adds	r2, r2, r3
    4b72:	687b      	ldr	r3, [r7, #4]
    4b74:	60da      	str	r2, [r3, #12]
    4b76:	687b      	ldr	r3, [r7, #4]
    4b78:	f04f 32ff 	mov.w	r2, #4294967295
    4b7c:	645a      	str	r2, [r3, #68]	; 0x44
    4b7e:	687b      	ldr	r3, [r7, #4]
    4b80:	f04f 32ff 	mov.w	r2, #4294967295
    4b84:	649a      	str	r2, [r3, #72]	; 0x48
    4b86:	683b      	ldr	r3, [r7, #0]
    4b88:	2b00      	cmp	r3, #0
    4b8a:	d10f      	bne.n	4bac <xQueueGenericReset+0x90>
    4b8c:	687b      	ldr	r3, [r7, #4]
    4b8e:	691b      	ldr	r3, [r3, #16]
    4b90:	2b00      	cmp	r3, #0
    4b92:	d017      	beq.n	4bc4 <xQueueGenericReset+0xa8>
    4b94:	687b      	ldr	r3, [r7, #4]
    4b96:	f103 0310 	add.w	r3, r3, #16
    4b9a:	4618      	mov	r0, r3
    4b9c:	f7fe fd24 	bl	35e8 <xTaskRemoveFromEventList>
    4ba0:	4603      	mov	r3, r0
    4ba2:	2b01      	cmp	r3, #1
    4ba4:	d10e      	bne.n	4bc4 <xQueueGenericReset+0xa8>
    4ba6:	f000 fc6d 	bl	5484 <vPortYieldFromISR>
    4baa:	e00b      	b.n	4bc4 <xQueueGenericReset+0xa8>
    4bac:	687b      	ldr	r3, [r7, #4]
    4bae:	f103 0310 	add.w	r3, r3, #16
    4bb2:	4618      	mov	r0, r3
    4bb4:	f7ff f97a 	bl	3eac <vListInitialise>
    4bb8:	687b      	ldr	r3, [r7, #4]
    4bba:	f103 0324 	add.w	r3, r3, #36	; 0x24
    4bbe:	4618      	mov	r0, r3
    4bc0:	f7ff f974 	bl	3eac <vListInitialise>
    4bc4:	f000 fc7c 	bl	54c0 <vPortExitCritical>
    4bc8:	f04f 0301 	mov.w	r3, #1
    4bcc:	4618      	mov	r0, r3
    4bce:	f107 0708 	add.w	r7, r7, #8
    4bd2:	46bd      	mov	sp, r7
    4bd4:	bd80      	pop	{r7, pc}
    4bd6:	bf00      	nop

00004bd8 <xQueueGenericCreate>:
    4bd8:	b580      	push	{r7, lr}
    4bda:	b088      	sub	sp, #32
    4bdc:	af00      	add	r7, sp, #0
    4bde:	60f8      	str	r0, [r7, #12]
    4be0:	60b9      	str	r1, [r7, #8]
    4be2:	4613      	mov	r3, r2
    4be4:	71fb      	strb	r3, [r7, #7]
    4be6:	f04f 0300 	mov.w	r3, #0
    4bea:	61fb      	str	r3, [r7, #28]
    4bec:	68fb      	ldr	r3, [r7, #12]
    4bee:	2b00      	cmp	r3, #0
    4bf0:	d02a      	beq.n	4c48 <xQueueGenericCreate+0x70>
    4bf2:	f04f 004c 	mov.w	r0, #76	; 0x4c
    4bf6:	f000 fd83 	bl	5700 <pvPortMalloc>
    4bfa:	4603      	mov	r3, r0
    4bfc:	61bb      	str	r3, [r7, #24]
    4bfe:	69bb      	ldr	r3, [r7, #24]
    4c00:	2b00      	cmp	r3, #0
    4c02:	d021      	beq.n	4c48 <xQueueGenericCreate+0x70>
    4c04:	68fb      	ldr	r3, [r7, #12]
    4c06:	68ba      	ldr	r2, [r7, #8]
    4c08:	fb02 f303 	mul.w	r3, r2, r3
    4c0c:	f103 0301 	add.w	r3, r3, #1
    4c10:	617b      	str	r3, [r7, #20]
    4c12:	6978      	ldr	r0, [r7, #20]
    4c14:	f000 fd74 	bl	5700 <pvPortMalloc>
    4c18:	4602      	mov	r2, r0
    4c1a:	69bb      	ldr	r3, [r7, #24]
    4c1c:	601a      	str	r2, [r3, #0]
    4c1e:	69bb      	ldr	r3, [r7, #24]
    4c20:	681b      	ldr	r3, [r3, #0]
    4c22:	2b00      	cmp	r3, #0
    4c24:	d00d      	beq.n	4c42 <xQueueGenericCreate+0x6a>
    4c26:	69bb      	ldr	r3, [r7, #24]
    4c28:	68fa      	ldr	r2, [r7, #12]
    4c2a:	63da      	str	r2, [r3, #60]	; 0x3c
    4c2c:	69bb      	ldr	r3, [r7, #24]
    4c2e:	68ba      	ldr	r2, [r7, #8]
    4c30:	641a      	str	r2, [r3, #64]	; 0x40
    4c32:	69b8      	ldr	r0, [r7, #24]
    4c34:	f04f 0101 	mov.w	r1, #1
    4c38:	f7ff ff70 	bl	4b1c <xQueueGenericReset>
    4c3c:	69bb      	ldr	r3, [r7, #24]
    4c3e:	61fb      	str	r3, [r7, #28]
    4c40:	e002      	b.n	4c48 <xQueueGenericCreate+0x70>
    4c42:	69b8      	ldr	r0, [r7, #24]
    4c44:	f000 fe34 	bl	58b0 <vPortFree>
    4c48:	69fb      	ldr	r3, [r7, #28]
    4c4a:	2b00      	cmp	r3, #0
    4c4c:	d102      	bne.n	4c54 <xQueueGenericCreate+0x7c>
    4c4e:	f000 fc51 	bl	54f4 <ulPortSetInterruptMask>
    4c52:	e7fe      	b.n	4c52 <xQueueGenericCreate+0x7a>
    4c54:	69fb      	ldr	r3, [r7, #28]
    4c56:	4618      	mov	r0, r3
    4c58:	f107 0720 	add.w	r7, r7, #32
    4c5c:	46bd      	mov	sp, r7
    4c5e:	bd80      	pop	{r7, pc}

00004c60 <xQueueCreateMutex>:
    4c60:	b580      	push	{r7, lr}
    4c62:	b084      	sub	sp, #16
    4c64:	af00      	add	r7, sp, #0
    4c66:	4603      	mov	r3, r0
    4c68:	71fb      	strb	r3, [r7, #7]
    4c6a:	f04f 004c 	mov.w	r0, #76	; 0x4c
    4c6e:	f000 fd47 	bl	5700 <pvPortMalloc>
    4c72:	4603      	mov	r3, r0
    4c74:	60fb      	str	r3, [r7, #12]
    4c76:	68fb      	ldr	r3, [r7, #12]
    4c78:	2b00      	cmp	r3, #0
    4c7a:	d038      	beq.n	4cee <xQueueCreateMutex+0x8e>
    4c7c:	68fb      	ldr	r3, [r7, #12]
    4c7e:	f04f 0200 	mov.w	r2, #0
    4c82:	605a      	str	r2, [r3, #4]
    4c84:	68fb      	ldr	r3, [r7, #12]
    4c86:	f04f 0200 	mov.w	r2, #0
    4c8a:	601a      	str	r2, [r3, #0]
    4c8c:	68fb      	ldr	r3, [r7, #12]
    4c8e:	f04f 0200 	mov.w	r2, #0
    4c92:	609a      	str	r2, [r3, #8]
    4c94:	68fb      	ldr	r3, [r7, #12]
    4c96:	f04f 0200 	mov.w	r2, #0
    4c9a:	60da      	str	r2, [r3, #12]
    4c9c:	68fb      	ldr	r3, [r7, #12]
    4c9e:	f04f 0200 	mov.w	r2, #0
    4ca2:	639a      	str	r2, [r3, #56]	; 0x38
    4ca4:	68fb      	ldr	r3, [r7, #12]
    4ca6:	f04f 0201 	mov.w	r2, #1
    4caa:	63da      	str	r2, [r3, #60]	; 0x3c
    4cac:	68fb      	ldr	r3, [r7, #12]
    4cae:	f04f 0200 	mov.w	r2, #0
    4cb2:	641a      	str	r2, [r3, #64]	; 0x40
    4cb4:	68fb      	ldr	r3, [r7, #12]
    4cb6:	f04f 32ff 	mov.w	r2, #4294967295
    4cba:	645a      	str	r2, [r3, #68]	; 0x44
    4cbc:	68fb      	ldr	r3, [r7, #12]
    4cbe:	f04f 32ff 	mov.w	r2, #4294967295
    4cc2:	649a      	str	r2, [r3, #72]	; 0x48
    4cc4:	68fb      	ldr	r3, [r7, #12]
    4cc6:	f103 0310 	add.w	r3, r3, #16
    4cca:	4618      	mov	r0, r3
    4ccc:	f7ff f8ee 	bl	3eac <vListInitialise>
    4cd0:	68fb      	ldr	r3, [r7, #12]
    4cd2:	f103 0324 	add.w	r3, r3, #36	; 0x24
    4cd6:	4618      	mov	r0, r3
    4cd8:	f7ff f8e8 	bl	3eac <vListInitialise>
    4cdc:	68f8      	ldr	r0, [r7, #12]
    4cde:	f04f 0100 	mov.w	r1, #0
    4ce2:	f04f 0200 	mov.w	r2, #0
    4ce6:	f04f 0300 	mov.w	r3, #0
    4cea:	f000 f80d 	bl	4d08 <xQueueGenericSend>
    4cee:	68fb      	ldr	r3, [r7, #12]
    4cf0:	2b00      	cmp	r3, #0
    4cf2:	d102      	bne.n	4cfa <xQueueCreateMutex+0x9a>
    4cf4:	f000 fbfe 	bl	54f4 <ulPortSetInterruptMask>
    4cf8:	e7fe      	b.n	4cf8 <xQueueCreateMutex+0x98>
    4cfa:	68fb      	ldr	r3, [r7, #12]
    4cfc:	4618      	mov	r0, r3
    4cfe:	f107 0710 	add.w	r7, r7, #16
    4d02:	46bd      	mov	sp, r7
    4d04:	bd80      	pop	{r7, pc}
    4d06:	bf00      	nop

00004d08 <xQueueGenericSend>:
    4d08:	b580      	push	{r7, lr}
    4d0a:	b088      	sub	sp, #32
    4d0c:	af00      	add	r7, sp, #0
    4d0e:	60f8      	str	r0, [r7, #12]
    4d10:	60b9      	str	r1, [r7, #8]
    4d12:	607a      	str	r2, [r7, #4]
    4d14:	603b      	str	r3, [r7, #0]
    4d16:	f04f 0300 	mov.w	r3, #0
    4d1a:	61fb      	str	r3, [r7, #28]
    4d1c:	68fb      	ldr	r3, [r7, #12]
    4d1e:	2b00      	cmp	r3, #0
    4d20:	d102      	bne.n	4d28 <xQueueGenericSend+0x20>
    4d22:	f000 fbe7 	bl	54f4 <ulPortSetInterruptMask>
    4d26:	e7fe      	b.n	4d26 <xQueueGenericSend+0x1e>
    4d28:	68bb      	ldr	r3, [r7, #8]
    4d2a:	2b00      	cmp	r3, #0
    4d2c:	d103      	bne.n	4d36 <xQueueGenericSend+0x2e>
    4d2e:	68fb      	ldr	r3, [r7, #12]
    4d30:	6c1b      	ldr	r3, [r3, #64]	; 0x40
    4d32:	2b00      	cmp	r3, #0
    4d34:	d102      	bne.n	4d3c <xQueueGenericSend+0x34>
    4d36:	f04f 0301 	mov.w	r3, #1
    4d3a:	e001      	b.n	4d40 <xQueueGenericSend+0x38>
    4d3c:	f04f 0300 	mov.w	r3, #0
    4d40:	2b00      	cmp	r3, #0
    4d42:	d103      	bne.n	4d4c <xQueueGenericSend+0x44>
    4d44:	f000 fbd6 	bl	54f4 <ulPortSetInterruptMask>
    4d48:	e7fe      	b.n	4d48 <xQueueGenericSend+0x40>
    4d4a:	bf00      	nop
    4d4c:	f000 fba6 	bl	549c <vPortEnterCritical>
    4d50:	68fb      	ldr	r3, [r7, #12]
    4d52:	6b9b      	ldr	r3, [r3, #56]	; 0x38
    4d54:	461a      	mov	r2, r3
    4d56:	68fb      	ldr	r3, [r7, #12]
    4d58:	6bdb      	ldr	r3, [r3, #60]	; 0x3c
    4d5a:	429a      	cmp	r2, r3
    4d5c:	d218      	bcs.n	4d90 <xQueueGenericSend+0x88>
    4d5e:	68f8      	ldr	r0, [r7, #12]
    4d60:	68b9      	ldr	r1, [r7, #8]
    4d62:	683a      	ldr	r2, [r7, #0]
    4d64:	f000 fa10 	bl	5188 <prvCopyDataToQueue>
    4d68:	68fb      	ldr	r3, [r7, #12]
    4d6a:	6a5b      	ldr	r3, [r3, #36]	; 0x24
    4d6c:	2b00      	cmp	r3, #0
    4d6e:	d00a      	beq.n	4d86 <xQueueGenericSend+0x7e>
    4d70:	68fb      	ldr	r3, [r7, #12]
    4d72:	f103 0324 	add.w	r3, r3, #36	; 0x24
    4d76:	4618      	mov	r0, r3
    4d78:	f7fe fc36 	bl	35e8 <xTaskRemoveFromEventList>
    4d7c:	4603      	mov	r3, r0
    4d7e:	2b01      	cmp	r3, #1
    4d80:	d101      	bne.n	4d86 <xQueueGenericSend+0x7e>
    4d82:	f000 fb7f 	bl	5484 <vPortYieldFromISR>
    4d86:	f000 fb9b 	bl	54c0 <vPortExitCritical>
    4d8a:	f04f 0301 	mov.w	r3, #1
    4d8e:	e05d      	b.n	4e4c <xQueueGenericSend+0x144>
    4d90:	687b      	ldr	r3, [r7, #4]
    4d92:	2b00      	cmp	r3, #0
    4d94:	d104      	bne.n	4da0 <xQueueGenericSend+0x98>
    4d96:	f000 fb93 	bl	54c0 <vPortExitCritical>
    4d9a:	f04f 0300 	mov.w	r3, #0
    4d9e:	e055      	b.n	4e4c <xQueueGenericSend+0x144>
    4da0:	69fb      	ldr	r3, [r7, #28]
    4da2:	2b00      	cmp	r3, #0
    4da4:	d107      	bne.n	4db6 <xQueueGenericSend+0xae>
    4da6:	f107 0314 	add.w	r3, r7, #20
    4daa:	4618      	mov	r0, r3
    4dac:	f7fe fc84 	bl	36b8 <vTaskSetTimeOutState>
    4db0:	f04f 0301 	mov.w	r3, #1
    4db4:	61fb      	str	r3, [r7, #28]
    4db6:	f000 fb83 	bl	54c0 <vPortExitCritical>
    4dba:	f7fe f989 	bl	30d0 <vTaskSuspendAll>
    4dbe:	f000 fb6d 	bl	549c <vPortEnterCritical>
    4dc2:	68fb      	ldr	r3, [r7, #12]
    4dc4:	6c5b      	ldr	r3, [r3, #68]	; 0x44
    4dc6:	f1b3 3fff 	cmp.w	r3, #4294967295
    4dca:	d103      	bne.n	4dd4 <xQueueGenericSend+0xcc>
    4dcc:	68fb      	ldr	r3, [r7, #12]
    4dce:	f04f 0200 	mov.w	r2, #0
    4dd2:	645a      	str	r2, [r3, #68]	; 0x44
    4dd4:	68fb      	ldr	r3, [r7, #12]
    4dd6:	6c9b      	ldr	r3, [r3, #72]	; 0x48
    4dd8:	f1b3 3fff 	cmp.w	r3, #4294967295
    4ddc:	d103      	bne.n	4de6 <xQueueGenericSend+0xde>
    4dde:	68fb      	ldr	r3, [r7, #12]
    4de0:	f04f 0200 	mov.w	r2, #0
    4de4:	649a      	str	r2, [r3, #72]	; 0x48
    4de6:	f000 fb6b 	bl	54c0 <vPortExitCritical>
    4dea:	f107 0214 	add.w	r2, r7, #20
    4dee:	f107 0304 	add.w	r3, r7, #4
    4df2:	4610      	mov	r0, r2
    4df4:	4619      	mov	r1, r3
    4df6:	f7fe fc7b 	bl	36f0 <xTaskCheckForTimeOut>
    4dfa:	4603      	mov	r3, r0
    4dfc:	2b00      	cmp	r3, #0
    4dfe:	d11e      	bne.n	4e3e <xQueueGenericSend+0x136>
    4e00:	68f8      	ldr	r0, [r7, #12]
    4e02:	f000 fab3 	bl	536c <prvIsQueueFull>
    4e06:	4603      	mov	r3, r0
    4e08:	2b00      	cmp	r3, #0
    4e0a:	d012      	beq.n	4e32 <xQueueGenericSend+0x12a>
    4e0c:	68fb      	ldr	r3, [r7, #12]
    4e0e:	f103 0210 	add.w	r2, r3, #16
    4e12:	687b      	ldr	r3, [r7, #4]
    4e14:	4610      	mov	r0, r2
    4e16:	4619      	mov	r1, r3
    4e18:	f7fe fbb6 	bl	3588 <vTaskPlaceOnEventList>
    4e1c:	68f8      	ldr	r0, [r7, #12]
    4e1e:	f000 fa3f 	bl	52a0 <prvUnlockQueue>
    4e22:	f7fe f967 	bl	30f4 <xTaskResumeAll>
    4e26:	4603      	mov	r3, r0
    4e28:	2b00      	cmp	r3, #0
    4e2a:	d18e      	bne.n	4d4a <xQueueGenericSend+0x42>
    4e2c:	f000 fb2a 	bl	5484 <vPortYieldFromISR>
    4e30:	e78b      	b.n	4d4a <xQueueGenericSend+0x42>
    4e32:	68f8      	ldr	r0, [r7, #12]
    4e34:	f000 fa34 	bl	52a0 <prvUnlockQueue>
    4e38:	f7fe f95c 	bl	30f4 <xTaskResumeAll>
    4e3c:	e785      	b.n	4d4a <xQueueGenericSend+0x42>
    4e3e:	68f8      	ldr	r0, [r7, #12]
    4e40:	f000 fa2e 	bl	52a0 <prvUnlockQueue>
    4e44:	f7fe f956 	bl	30f4 <xTaskResumeAll>
    4e48:	f04f 0300 	mov.w	r3, #0
    4e4c:	4618      	mov	r0, r3
    4e4e:	f107 0720 	add.w	r7, r7, #32
    4e52:	46bd      	mov	sp, r7
    4e54:	bd80      	pop	{r7, pc}
    4e56:	bf00      	nop

00004e58 <xQueueGenericSendFromISR>:
    4e58:	b580      	push	{r7, lr}
    4e5a:	b086      	sub	sp, #24
    4e5c:	af00      	add	r7, sp, #0
    4e5e:	60f8      	str	r0, [r7, #12]
    4e60:	60b9      	str	r1, [r7, #8]
    4e62:	607a      	str	r2, [r7, #4]
    4e64:	603b      	str	r3, [r7, #0]
    4e66:	68fb      	ldr	r3, [r7, #12]
    4e68:	2b00      	cmp	r3, #0
    4e6a:	d102      	bne.n	4e72 <xQueueGenericSendFromISR+0x1a>
    4e6c:	f000 fb42 	bl	54f4 <ulPortSetInterruptMask>
    4e70:	e7fe      	b.n	4e70 <xQueueGenericSendFromISR+0x18>
    4e72:	68bb      	ldr	r3, [r7, #8]
    4e74:	2b00      	cmp	r3, #0
    4e76:	d103      	bne.n	4e80 <xQueueGenericSendFromISR+0x28>
    4e78:	68fb      	ldr	r3, [r7, #12]
    4e7a:	6c1b      	ldr	r3, [r3, #64]	; 0x40
    4e7c:	2b00      	cmp	r3, #0
    4e7e:	d102      	bne.n	4e86 <xQueueGenericSendFromISR+0x2e>
    4e80:	f04f 0301 	mov.w	r3, #1
    4e84:	e001      	b.n	4e8a <xQueueGenericSendFromISR+0x32>
    4e86:	f04f 0300 	mov.w	r3, #0
    4e8a:	2b00      	cmp	r3, #0
    4e8c:	d102      	bne.n	4e94 <xQueueGenericSendFromISR+0x3c>
    4e8e:	f000 fb31 	bl	54f4 <ulPortSetInterruptMask>
    4e92:	e7fe      	b.n	4e92 <xQueueGenericSendFromISR+0x3a>
    4e94:	f000 fb2e 	bl	54f4 <ulPortSetInterruptMask>
    4e98:	4603      	mov	r3, r0
    4e9a:	613b      	str	r3, [r7, #16]
    4e9c:	68fb      	ldr	r3, [r7, #12]
    4e9e:	6b9b      	ldr	r3, [r3, #56]	; 0x38
    4ea0:	461a      	mov	r2, r3
    4ea2:	68fb      	ldr	r3, [r7, #12]
    4ea4:	6bdb      	ldr	r3, [r3, #60]	; 0x3c
    4ea6:	429a      	cmp	r2, r3
    4ea8:	d228      	bcs.n	4efc <xQueueGenericSendFromISR+0xa4>
    4eaa:	68f8      	ldr	r0, [r7, #12]
    4eac:	68b9      	ldr	r1, [r7, #8]
    4eae:	683a      	ldr	r2, [r7, #0]
    4eb0:	f000 f96a 	bl	5188 <prvCopyDataToQueue>
    4eb4:	68fb      	ldr	r3, [r7, #12]
    4eb6:	6c9b      	ldr	r3, [r3, #72]	; 0x48
    4eb8:	f1b3 3fff 	cmp.w	r3, #4294967295
    4ebc:	d114      	bne.n	4ee8 <xQueueGenericSendFromISR+0x90>
    4ebe:	68fb      	ldr	r3, [r7, #12]
    4ec0:	6a5b      	ldr	r3, [r3, #36]	; 0x24
    4ec2:	2b00      	cmp	r3, #0
    4ec4:	d016      	beq.n	4ef4 <xQueueGenericSendFromISR+0x9c>
    4ec6:	68fb      	ldr	r3, [r7, #12]
    4ec8:	f103 0324 	add.w	r3, r3, #36	; 0x24
    4ecc:	4618      	mov	r0, r3
    4ece:	f7fe fb8b 	bl	35e8 <xTaskRemoveFromEventList>
    4ed2:	4603      	mov	r3, r0
    4ed4:	2b00      	cmp	r3, #0
    4ed6:	d00d      	beq.n	4ef4 <xQueueGenericSendFromISR+0x9c>
    4ed8:	687b      	ldr	r3, [r7, #4]
    4eda:	2b00      	cmp	r3, #0
    4edc:	d00a      	beq.n	4ef4 <xQueueGenericSendFromISR+0x9c>
    4ede:	687b      	ldr	r3, [r7, #4]
    4ee0:	f04f 0201 	mov.w	r2, #1
    4ee4:	601a      	str	r2, [r3, #0]
    4ee6:	e005      	b.n	4ef4 <xQueueGenericSendFromISR+0x9c>
    4ee8:	68fb      	ldr	r3, [r7, #12]
    4eea:	6c9b      	ldr	r3, [r3, #72]	; 0x48
    4eec:	f103 0201 	add.w	r2, r3, #1
    4ef0:	68fb      	ldr	r3, [r7, #12]
    4ef2:	649a      	str	r2, [r3, #72]	; 0x48
    4ef4:	f04f 0301 	mov.w	r3, #1
    4ef8:	617b      	str	r3, [r7, #20]
    4efa:	e002      	b.n	4f02 <xQueueGenericSendFromISR+0xaa>
    4efc:	f04f 0300 	mov.w	r3, #0
    4f00:	617b      	str	r3, [r7, #20]
    4f02:	6938      	ldr	r0, [r7, #16]
    4f04:	f000 fb00 	bl	5508 <vPortClearInterruptMask>
    4f08:	697b      	ldr	r3, [r7, #20]
    4f0a:	4618      	mov	r0, r3
    4f0c:	f107 0718 	add.w	r7, r7, #24
    4f10:	46bd      	mov	sp, r7
    4f12:	bd80      	pop	{r7, pc}

00004f14 <xQueueGenericReceive>:
    4f14:	b580      	push	{r7, lr}
    4f16:	b088      	sub	sp, #32
    4f18:	af00      	add	r7, sp, #0
    4f1a:	60f8      	str	r0, [r7, #12]
    4f1c:	60b9      	str	r1, [r7, #8]
    4f1e:	607a      	str	r2, [r7, #4]
    4f20:	603b      	str	r3, [r7, #0]
    4f22:	f04f 0300 	mov.w	r3, #0
    4f26:	61fb      	str	r3, [r7, #28]
    4f28:	68fb      	ldr	r3, [r7, #12]
    4f2a:	2b00      	cmp	r3, #0
    4f2c:	d102      	bne.n	4f34 <xQueueGenericReceive+0x20>
    4f2e:	f000 fae1 	bl	54f4 <ulPortSetInterruptMask>
    4f32:	e7fe      	b.n	4f32 <xQueueGenericReceive+0x1e>
    4f34:	68bb      	ldr	r3, [r7, #8]
    4f36:	2b00      	cmp	r3, #0
    4f38:	d103      	bne.n	4f42 <xQueueGenericReceive+0x2e>
    4f3a:	68fb      	ldr	r3, [r7, #12]
    4f3c:	6c1b      	ldr	r3, [r3, #64]	; 0x40
    4f3e:	2b00      	cmp	r3, #0
    4f40:	d102      	bne.n	4f48 <xQueueGenericReceive+0x34>
    4f42:	f04f 0301 	mov.w	r3, #1
    4f46:	e001      	b.n	4f4c <xQueueGenericReceive+0x38>
    4f48:	f04f 0300 	mov.w	r3, #0
    4f4c:	2b00      	cmp	r3, #0
    4f4e:	d103      	bne.n	4f58 <xQueueGenericReceive+0x44>
    4f50:	f000 fad0 	bl	54f4 <ulPortSetInterruptMask>
    4f54:	e7fe      	b.n	4f54 <xQueueGenericReceive+0x40>
    4f56:	bf00      	nop
    4f58:	f000 faa0 	bl	549c <vPortEnterCritical>
    4f5c:	68fb      	ldr	r3, [r7, #12]
    4f5e:	6b9b      	ldr	r3, [r3, #56]	; 0x38
    4f60:	2b00      	cmp	r3, #0
    4f62:	d03f      	beq.n	4fe4 <xQueueGenericReceive+0xd0>
    4f64:	68fb      	ldr	r3, [r7, #12]
    4f66:	68db      	ldr	r3, [r3, #12]
    4f68:	61bb      	str	r3, [r7, #24]
    4f6a:	68f8      	ldr	r0, [r7, #12]
    4f6c:	68b9      	ldr	r1, [r7, #8]
    4f6e:	f000 f96f 	bl	5250 <prvCopyDataFromQueue>
    4f72:	683b      	ldr	r3, [r7, #0]
    4f74:	2b00      	cmp	r3, #0
    4f76:	d11e      	bne.n	4fb6 <xQueueGenericReceive+0xa2>
    4f78:	68fb      	ldr	r3, [r7, #12]
    4f7a:	6b9b      	ldr	r3, [r3, #56]	; 0x38
    4f7c:	f103 32ff 	add.w	r2, r3, #4294967295
    4f80:	68fb      	ldr	r3, [r7, #12]
    4f82:	639a      	str	r2, [r3, #56]	; 0x38
    4f84:	68fb      	ldr	r3, [r7, #12]
    4f86:	681b      	ldr	r3, [r3, #0]
    4f88:	2b00      	cmp	r3, #0
    4f8a:	d104      	bne.n	4f96 <xQueueGenericReceive+0x82>
    4f8c:	f7fe fd7c 	bl	3a88 <xTaskGetCurrentTaskHandle>
    4f90:	4602      	mov	r2, r0
    4f92:	68fb      	ldr	r3, [r7, #12]
    4f94:	605a      	str	r2, [r3, #4]
    4f96:	68fb      	ldr	r3, [r7, #12]
    4f98:	691b      	ldr	r3, [r3, #16]
    4f9a:	2b00      	cmp	r3, #0
    4f9c:	d01d      	beq.n	4fda <xQueueGenericReceive+0xc6>
    4f9e:	68fb      	ldr	r3, [r7, #12]
    4fa0:	f103 0310 	add.w	r3, r3, #16
    4fa4:	4618      	mov	r0, r3
    4fa6:	f7fe fb1f 	bl	35e8 <xTaskRemoveFromEventList>
    4faa:	4603      	mov	r3, r0
    4fac:	2b01      	cmp	r3, #1
    4fae:	d114      	bne.n	4fda <xQueueGenericReceive+0xc6>
    4fb0:	f000 fa68 	bl	5484 <vPortYieldFromISR>
    4fb4:	e011      	b.n	4fda <xQueueGenericReceive+0xc6>
    4fb6:	68fb      	ldr	r3, [r7, #12]
    4fb8:	69ba      	ldr	r2, [r7, #24]
    4fba:	60da      	str	r2, [r3, #12]
    4fbc:	68fb      	ldr	r3, [r7, #12]
    4fbe:	6a5b      	ldr	r3, [r3, #36]	; 0x24
    4fc0:	2b00      	cmp	r3, #0
    4fc2:	d00a      	beq.n	4fda <xQueueGenericReceive+0xc6>
    4fc4:	68fb      	ldr	r3, [r7, #12]
    4fc6:	f103 0324 	add.w	r3, r3, #36	; 0x24
    4fca:	4618      	mov	r0, r3
    4fcc:	f7fe fb0c 	bl	35e8 <xTaskRemoveFromEventList>
    4fd0:	4603      	mov	r3, r0
    4fd2:	2b00      	cmp	r3, #0
    4fd4:	d001      	beq.n	4fda <xQueueGenericReceive+0xc6>
    4fd6:	f000 fa55 	bl	5484 <vPortYieldFromISR>
    4fda:	f000 fa71 	bl	54c0 <vPortExitCritical>
    4fde:	f04f 0301 	mov.w	r3, #1
    4fe2:	e06b      	b.n	50bc <xQueueGenericReceive+0x1a8>
    4fe4:	687b      	ldr	r3, [r7, #4]
    4fe6:	2b00      	cmp	r3, #0
    4fe8:	d104      	bne.n	4ff4 <xQueueGenericReceive+0xe0>
    4fea:	f000 fa69 	bl	54c0 <vPortExitCritical>
    4fee:	f04f 0300 	mov.w	r3, #0
    4ff2:	e063      	b.n	50bc <xQueueGenericReceive+0x1a8>
    4ff4:	69fb      	ldr	r3, [r7, #28]
    4ff6:	2b00      	cmp	r3, #0
    4ff8:	d107      	bne.n	500a <xQueueGenericReceive+0xf6>
    4ffa:	f107 0310 	add.w	r3, r7, #16
    4ffe:	4618      	mov	r0, r3
    5000:	f7fe fb5a 	bl	36b8 <vTaskSetTimeOutState>
    5004:	f04f 0301 	mov.w	r3, #1
    5008:	61fb      	str	r3, [r7, #28]
    500a:	f000 fa59 	bl	54c0 <vPortExitCritical>
    500e:	f7fe f85f 	bl	30d0 <vTaskSuspendAll>
    5012:	f000 fa43 	bl	549c <vPortEnterCritical>
    5016:	68fb      	ldr	r3, [r7, #12]
    5018:	6c5b      	ldr	r3, [r3, #68]	; 0x44
    501a:	f1b3 3fff 	cmp.w	r3, #4294967295
    501e:	d103      	bne.n	5028 <xQueueGenericReceive+0x114>
    5020:	68fb      	ldr	r3, [r7, #12]
    5022:	f04f 0200 	mov.w	r2, #0
    5026:	645a      	str	r2, [r3, #68]	; 0x44
    5028:	68fb      	ldr	r3, [r7, #12]
    502a:	6c9b      	ldr	r3, [r3, #72]	; 0x48
    502c:	f1b3 3fff 	cmp.w	r3, #4294967295
    5030:	d103      	bne.n	503a <xQueueGenericReceive+0x126>
    5032:	68fb      	ldr	r3, [r7, #12]
    5034:	f04f 0200 	mov.w	r2, #0
    5038:	649a      	str	r2, [r3, #72]	; 0x48
    503a:	f000 fa41 	bl	54c0 <vPortExitCritical>
    503e:	f107 0210 	add.w	r2, r7, #16
    5042:	f107 0304 	add.w	r3, r7, #4
    5046:	4610      	mov	r0, r2
    5048:	4619      	mov	r1, r3
    504a:	f7fe fb51 	bl	36f0 <xTaskCheckForTimeOut>
    504e:	4603      	mov	r3, r0
    5050:	2b00      	cmp	r3, #0
    5052:	d12c      	bne.n	50ae <xQueueGenericReceive+0x19a>
    5054:	68f8      	ldr	r0, [r7, #12]
    5056:	f000 f973 	bl	5340 <prvIsQueueEmpty>
    505a:	4603      	mov	r3, r0
    505c:	2b00      	cmp	r3, #0
    505e:	d020      	beq.n	50a2 <xQueueGenericReceive+0x18e>
    5060:	68fb      	ldr	r3, [r7, #12]
    5062:	681b      	ldr	r3, [r3, #0]
    5064:	2b00      	cmp	r3, #0
    5066:	d108      	bne.n	507a <xQueueGenericReceive+0x166>
    5068:	f000 fa18 	bl	549c <vPortEnterCritical>
    506c:	68fb      	ldr	r3, [r7, #12]
    506e:	685b      	ldr	r3, [r3, #4]
    5070:	4618      	mov	r0, r3
    5072:	f7fe fd19 	bl	3aa8 <vTaskPriorityInherit>
    5076:	f000 fa23 	bl	54c0 <vPortExitCritical>
    507a:	68fb      	ldr	r3, [r7, #12]
    507c:	f103 0224 	add.w	r2, r3, #36	; 0x24
    5080:	687b      	ldr	r3, [r7, #4]
    5082:	4610      	mov	r0, r2
    5084:	4619      	mov	r1, r3
    5086:	f7fe fa7f 	bl	3588 <vTaskPlaceOnEventList>
    508a:	68f8      	ldr	r0, [r7, #12]
    508c:	f000 f908 	bl	52a0 <prvUnlockQueue>
    5090:	f7fe f830 	bl	30f4 <xTaskResumeAll>
    5094:	4603      	mov	r3, r0
    5096:	2b00      	cmp	r3, #0
    5098:	f47f af5d 	bne.w	4f56 <xQueueGenericReceive+0x42>
    509c:	f000 f9f2 	bl	5484 <vPortYieldFromISR>
    50a0:	e759      	b.n	4f56 <xQueueGenericReceive+0x42>
    50a2:	68f8      	ldr	r0, [r7, #12]
    50a4:	f000 f8fc 	bl	52a0 <prvUnlockQueue>
    50a8:	f7fe f824 	bl	30f4 <xTaskResumeAll>
    50ac:	e753      	b.n	4f56 <xQueueGenericReceive+0x42>
    50ae:	68f8      	ldr	r0, [r7, #12]
    50b0:	f000 f8f6 	bl	52a0 <prvUnlockQueue>
    50b4:	f7fe f81e 	bl	30f4 <xTaskResumeAll>
    50b8:	f04f 0300 	mov.w	r3, #0
    50bc:	4618      	mov	r0, r3
    50be:	f107 0720 	add.w	r7, r7, #32
    50c2:	46bd      	mov	sp, r7
    50c4:	bd80      	pop	{r7, pc}
    50c6:	bf00      	nop

000050c8 <xQueueReceiveFromISR>:
    50c8:	b580      	push	{r7, lr}
    50ca:	b086      	sub	sp, #24
    50cc:	af00      	add	r7, sp, #0
    50ce:	60f8      	str	r0, [r7, #12]
    50d0:	60b9      	str	r1, [r7, #8]
    50d2:	607a      	str	r2, [r7, #4]
    50d4:	68fb      	ldr	r3, [r7, #12]
    50d6:	2b00      	cmp	r3, #0
    50d8:	d102      	bne.n	50e0 <xQueueReceiveFromISR+0x18>
    50da:	f000 fa0b 	bl	54f4 <ulPortSetInterruptMask>
    50de:	e7fe      	b.n	50de <xQueueReceiveFromISR+0x16>
    50e0:	68bb      	ldr	r3, [r7, #8]
    50e2:	2b00      	cmp	r3, #0
    50e4:	d103      	bne.n	50ee <xQueueReceiveFromISR+0x26>
    50e6:	68fb      	ldr	r3, [r7, #12]
    50e8:	6c1b      	ldr	r3, [r3, #64]	; 0x40
    50ea:	2b00      	cmp	r3, #0
    50ec:	d102      	bne.n	50f4 <xQueueReceiveFromISR+0x2c>
    50ee:	f04f 0301 	mov.w	r3, #1
    50f2:	e001      	b.n	50f8 <xQueueReceiveFromISR+0x30>
    50f4:	f04f 0300 	mov.w	r3, #0
    50f8:	2b00      	cmp	r3, #0
    50fa:	d102      	bne.n	5102 <xQueueReceiveFromISR+0x3a>
    50fc:	f000 f9fa 	bl	54f4 <ulPortSetInterruptMask>
    5100:	e7fe      	b.n	5100 <xQueueReceiveFromISR+0x38>
    5102:	f000 f9f7 	bl	54f4 <ulPortSetInterruptMask>
    5106:	4603      	mov	r3, r0
    5108:	613b      	str	r3, [r7, #16]
    510a:	68fb      	ldr	r3, [r7, #12]
    510c:	6b9b      	ldr	r3, [r3, #56]	; 0x38
    510e:	2b00      	cmp	r3, #0
    5110:	d02d      	beq.n	516e <xQueueReceiveFromISR+0xa6>
    5112:	68f8      	ldr	r0, [r7, #12]
    5114:	68b9      	ldr	r1, [r7, #8]
    5116:	f000 f89b 	bl	5250 <prvCopyDataFromQueue>
    511a:	68fb      	ldr	r3, [r7, #12]
    511c:	6b9b      	ldr	r3, [r3, #56]	; 0x38
    511e:	f103 32ff 	add.w	r2, r3, #4294967295
    5122:	68fb      	ldr	r3, [r7, #12]
    5124:	639a      	str	r2, [r3, #56]	; 0x38
    5126:	68fb      	ldr	r3, [r7, #12]
    5128:	6c5b      	ldr	r3, [r3, #68]	; 0x44
    512a:	f1b3 3fff 	cmp.w	r3, #4294967295
    512e:	d114      	bne.n	515a <xQueueReceiveFromISR+0x92>
    5130:	68fb      	ldr	r3, [r7, #12]
    5132:	691b      	ldr	r3, [r3, #16]
    5134:	2b00      	cmp	r3, #0
    5136:	d016      	beq.n	5166 <xQueueReceiveFromISR+0x9e>
    5138:	68fb      	ldr	r3, [r7, #12]
    513a:	f103 0310 	add.w	r3, r3, #16
    513e:	4618      	mov	r0, r3
    5140:	f7fe fa52 	bl	35e8 <xTaskRemoveFromEventList>
    5144:	4603      	mov	r3, r0
    5146:	2b00      	cmp	r3, #0
    5148:	d00d      	beq.n	5166 <xQueueReceiveFromISR+0x9e>
    514a:	687b      	ldr	r3, [r7, #4]
    514c:	2b00      	cmp	r3, #0
    514e:	d00a      	beq.n	5166 <xQueueReceiveFromISR+0x9e>
    5150:	687b      	ldr	r3, [r7, #4]
    5152:	f04f 0201 	mov.w	r2, #1
    5156:	601a      	str	r2, [r3, #0]
    5158:	e005      	b.n	5166 <xQueueReceiveFromISR+0x9e>
    515a:	68fb      	ldr	r3, [r7, #12]
    515c:	6c5b      	ldr	r3, [r3, #68]	; 0x44
    515e:	f103 0201 	add.w	r2, r3, #1
    5162:	68fb      	ldr	r3, [r7, #12]
    5164:	645a      	str	r2, [r3, #68]	; 0x44
    5166:	f04f 0301 	mov.w	r3, #1
    516a:	617b      	str	r3, [r7, #20]
    516c:	e002      	b.n	5174 <xQueueReceiveFromISR+0xac>
    516e:	f04f 0300 	mov.w	r3, #0
    5172:	617b      	str	r3, [r7, #20]
    5174:	6938      	ldr	r0, [r7, #16]
    5176:	f000 f9c7 	bl	5508 <vPortClearInterruptMask>
    517a:	697b      	ldr	r3, [r7, #20]
    517c:	4618      	mov	r0, r3
    517e:	f107 0718 	add.w	r7, r7, #24
    5182:	46bd      	mov	sp, r7
    5184:	bd80      	pop	{r7, pc}
    5186:	bf00      	nop

00005188 <prvCopyDataToQueue>:
    5188:	b580      	push	{r7, lr}
    518a:	b084      	sub	sp, #16
    518c:	af00      	add	r7, sp, #0
    518e:	60f8      	str	r0, [r7, #12]
    5190:	60b9      	str	r1, [r7, #8]
    5192:	607a      	str	r2, [r7, #4]
    5194:	68fb      	ldr	r3, [r7, #12]
    5196:	6c1b      	ldr	r3, [r3, #64]	; 0x40
    5198:	2b00      	cmp	r3, #0
    519a:	d10d      	bne.n	51b8 <prvCopyDataToQueue+0x30>
    519c:	68fb      	ldr	r3, [r7, #12]
    519e:	681b      	ldr	r3, [r3, #0]
    51a0:	2b00      	cmp	r3, #0
    51a2:	d14a      	bne.n	523a <prvCopyDataToQueue+0xb2>
    51a4:	68fb      	ldr	r3, [r7, #12]
    51a6:	685b      	ldr	r3, [r3, #4]
    51a8:	4618      	mov	r0, r3
    51aa:	f7fe fced 	bl	3b88 <vTaskPriorityDisinherit>
    51ae:	68fb      	ldr	r3, [r7, #12]
    51b0:	f04f 0200 	mov.w	r2, #0
    51b4:	605a      	str	r2, [r3, #4]
    51b6:	e040      	b.n	523a <prvCopyDataToQueue+0xb2>
    51b8:	687b      	ldr	r3, [r7, #4]
    51ba:	2b00      	cmp	r3, #0
    51bc:	d11b      	bne.n	51f6 <prvCopyDataToQueue+0x6e>
    51be:	68fb      	ldr	r3, [r7, #12]
    51c0:	6899      	ldr	r1, [r3, #8]
    51c2:	68fb      	ldr	r3, [r7, #12]
    51c4:	6c1b      	ldr	r3, [r3, #64]	; 0x40
    51c6:	68ba      	ldr	r2, [r7, #8]
    51c8:	4608      	mov	r0, r1
    51ca:	4611      	mov	r1, r2
    51cc:	461a      	mov	r2, r3
    51ce:	f001 fabb 	bl	6748 <memcpy>
    51d2:	68fb      	ldr	r3, [r7, #12]
    51d4:	689a      	ldr	r2, [r3, #8]
    51d6:	68fb      	ldr	r3, [r7, #12]
    51d8:	6c1b      	ldr	r3, [r3, #64]	; 0x40
    51da:	18d2      	adds	r2, r2, r3
    51dc:	68fb      	ldr	r3, [r7, #12]
    51de:	609a      	str	r2, [r3, #8]
    51e0:	68fb      	ldr	r3, [r7, #12]
    51e2:	689a      	ldr	r2, [r3, #8]
    51e4:	68fb      	ldr	r3, [r7, #12]
    51e6:	685b      	ldr	r3, [r3, #4]
    51e8:	429a      	cmp	r2, r3
    51ea:	d326      	bcc.n	523a <prvCopyDataToQueue+0xb2>
    51ec:	68fb      	ldr	r3, [r7, #12]
    51ee:	681a      	ldr	r2, [r3, #0]
    51f0:	68fb      	ldr	r3, [r7, #12]
    51f2:	609a      	str	r2, [r3, #8]
    51f4:	e021      	b.n	523a <prvCopyDataToQueue+0xb2>
    51f6:	68fb      	ldr	r3, [r7, #12]
    51f8:	68d9      	ldr	r1, [r3, #12]
    51fa:	68fb      	ldr	r3, [r7, #12]
    51fc:	6c1b      	ldr	r3, [r3, #64]	; 0x40
    51fe:	68ba      	ldr	r2, [r7, #8]
    5200:	4608      	mov	r0, r1
    5202:	4611      	mov	r1, r2
    5204:	461a      	mov	r2, r3
    5206:	f001 fa9f 	bl	6748 <memcpy>
    520a:	68fb      	ldr	r3, [r7, #12]
    520c:	68da      	ldr	r2, [r3, #12]
    520e:	68fb      	ldr	r3, [r7, #12]
    5210:	6c1b      	ldr	r3, [r3, #64]	; 0x40
    5212:	f1c3 0300 	rsb	r3, r3, #0
    5216:	18d2      	adds	r2, r2, r3
    5218:	68fb      	ldr	r3, [r7, #12]
    521a:	60da      	str	r2, [r3, #12]
    521c:	68fb      	ldr	r3, [r7, #12]
    521e:	68da      	ldr	r2, [r3, #12]
    5220:	68fb      	ldr	r3, [r7, #12]
    5222:	681b      	ldr	r3, [r3, #0]
    5224:	429a      	cmp	r2, r3
    5226:	d208      	bcs.n	523a <prvCopyDataToQueue+0xb2>
    5228:	68fb      	ldr	r3, [r7, #12]
    522a:	685a      	ldr	r2, [r3, #4]
    522c:	68fb      	ldr	r3, [r7, #12]
    522e:	6c1b      	ldr	r3, [r3, #64]	; 0x40
    5230:	f1c3 0300 	rsb	r3, r3, #0
    5234:	18d2      	adds	r2, r2, r3
    5236:	68fb      	ldr	r3, [r7, #12]
    5238:	60da      	str	r2, [r3, #12]
    523a:	68fb      	ldr	r3, [r7, #12]
    523c:	6b9b      	ldr	r3, [r3, #56]	; 0x38
    523e:	f103 0201 	add.w	r2, r3, #1
    5242:	68fb      	ldr	r3, [r7, #12]
    5244:	639a      	str	r2, [r3, #56]	; 0x38
    5246:	f107 0710 	add.w	r7, r7, #16
    524a:	46bd      	mov	sp, r7
    524c:	bd80      	pop	{r7, pc}
    524e:	bf00      	nop

00005250 <prvCopyDataFromQueue>:
    5250:	b580      	push	{r7, lr}
    5252:	b082      	sub	sp, #8
    5254:	af00      	add	r7, sp, #0
    5256:	6078      	str	r0, [r7, #4]
    5258:	6039      	str	r1, [r7, #0]
    525a:	687b      	ldr	r3, [r7, #4]
    525c:	681b      	ldr	r3, [r3, #0]
    525e:	2b00      	cmp	r3, #0
    5260:	d01a      	beq.n	5298 <prvCopyDataFromQueue+0x48>
    5262:	687b      	ldr	r3, [r7, #4]
    5264:	68da      	ldr	r2, [r3, #12]
    5266:	687b      	ldr	r3, [r7, #4]
    5268:	6c1b      	ldr	r3, [r3, #64]	; 0x40
    526a:	18d2      	adds	r2, r2, r3
    526c:	687b      	ldr	r3, [r7, #4]
    526e:	60da      	str	r2, [r3, #12]
    5270:	687b      	ldr	r3, [r7, #4]
    5272:	68da      	ldr	r2, [r3, #12]
    5274:	687b      	ldr	r3, [r7, #4]
    5276:	685b      	ldr	r3, [r3, #4]
    5278:	429a      	cmp	r2, r3
    527a:	d303      	bcc.n	5284 <prvCopyDataFromQueue+0x34>
    527c:	687b      	ldr	r3, [r7, #4]
    527e:	681a      	ldr	r2, [r3, #0]
    5280:	687b      	ldr	r3, [r7, #4]
    5282:	60da      	str	r2, [r3, #12]
    5284:	687b      	ldr	r3, [r7, #4]
    5286:	68da      	ldr	r2, [r3, #12]
    5288:	687b      	ldr	r3, [r7, #4]
    528a:	6c1b      	ldr	r3, [r3, #64]	; 0x40
    528c:	6839      	ldr	r1, [r7, #0]
    528e:	4608      	mov	r0, r1
    5290:	4611      	mov	r1, r2
    5292:	461a      	mov	r2, r3
    5294:	f001 fa58 	bl	6748 <memcpy>
    5298:	f107 0708 	add.w	r7, r7, #8
    529c:	46bd      	mov	sp, r7
    529e:	bd80      	pop	{r7, pc}

000052a0 <prvUnlockQueue>:
    52a0:	b580      	push	{r7, lr}
    52a2:	b082      	sub	sp, #8
    52a4:	af00      	add	r7, sp, #0
    52a6:	6078      	str	r0, [r7, #4]
    52a8:	f000 f8f8 	bl	549c <vPortEnterCritical>
    52ac:	e014      	b.n	52d8 <prvUnlockQueue+0x38>
    52ae:	687b      	ldr	r3, [r7, #4]
    52b0:	6a5b      	ldr	r3, [r3, #36]	; 0x24
    52b2:	2b00      	cmp	r3, #0
    52b4:	d015      	beq.n	52e2 <prvUnlockQueue+0x42>
    52b6:	687b      	ldr	r3, [r7, #4]
    52b8:	f103 0324 	add.w	r3, r3, #36	; 0x24
    52bc:	4618      	mov	r0, r3
    52be:	f7fe f993 	bl	35e8 <xTaskRemoveFromEventList>
    52c2:	4603      	mov	r3, r0
    52c4:	2b00      	cmp	r3, #0
    52c6:	d001      	beq.n	52cc <prvUnlockQueue+0x2c>
    52c8:	f7fe fa66 	bl	3798 <vTaskMissedYield>
    52cc:	687b      	ldr	r3, [r7, #4]
    52ce:	6c9b      	ldr	r3, [r3, #72]	; 0x48
    52d0:	f103 32ff 	add.w	r2, r3, #4294967295
    52d4:	687b      	ldr	r3, [r7, #4]
    52d6:	649a      	str	r2, [r3, #72]	; 0x48
    52d8:	687b      	ldr	r3, [r7, #4]
    52da:	6c9b      	ldr	r3, [r3, #72]	; 0x48
    52dc:	2b00      	cmp	r3, #0
    52de:	dce6      	bgt.n	52ae <prvUnlockQueue+0xe>
    52e0:	e000      	b.n	52e4 <prvUnlockQueue+0x44>
    52e2:	bf00      	nop
    52e4:	687b      	ldr	r3, [r7, #4]
    52e6:	f04f 32ff 	mov.w	r2, #4294967295
    52ea:	649a      	str	r2, [r3, #72]	; 0x48
    52ec:	f000 f8e8 	bl	54c0 <vPortExitCritical>
    52f0:	f000 f8d4 	bl	549c <vPortEnterCritical>
    52f4:	e014      	b.n	5320 <prvUnlockQueue+0x80>
    52f6:	687b      	ldr	r3, [r7, #4]
    52f8:	691b      	ldr	r3, [r3, #16]
    52fa:	2b00      	cmp	r3, #0
    52fc:	d015      	beq.n	532a <prvUnlockQueue+0x8a>
    52fe:	687b      	ldr	r3, [r7, #4]
    5300:	f103 0310 	add.w	r3, r3, #16
    5304:	4618      	mov	r0, r3
    5306:	f7fe f96f 	bl	35e8 <xTaskRemoveFromEventList>
    530a:	4603      	mov	r3, r0
    530c:	2b00      	cmp	r3, #0
    530e:	d001      	beq.n	5314 <prvUnlockQueue+0x74>
    5310:	f7fe fa42 	bl	3798 <vTaskMissedYield>
    5314:	687b      	ldr	r3, [r7, #4]
    5316:	6c5b      	ldr	r3, [r3, #68]	; 0x44
    5318:	f103 32ff 	add.w	r2, r3, #4294967295
    531c:	687b      	ldr	r3, [r7, #4]
    531e:	645a      	str	r2, [r3, #68]	; 0x44
    5320:	687b      	ldr	r3, [r7, #4]
    5322:	6c5b      	ldr	r3, [r3, #68]	; 0x44
    5324:	2b00      	cmp	r3, #0
    5326:	dce6      	bgt.n	52f6 <prvUnlockQueue+0x56>
    5328:	e000      	b.n	532c <prvUnlockQueue+0x8c>
    532a:	bf00      	nop
    532c:	687b      	ldr	r3, [r7, #4]
    532e:	f04f 32ff 	mov.w	r2, #4294967295
    5332:	645a      	str	r2, [r3, #68]	; 0x44
    5334:	f000 f8c4 	bl	54c0 <vPortExitCritical>
    5338:	f107 0708 	add.w	r7, r7, #8
    533c:	46bd      	mov	sp, r7
    533e:	bd80      	pop	{r7, pc}

00005340 <prvIsQueueEmpty>:
    5340:	b580      	push	{r7, lr}
    5342:	b084      	sub	sp, #16
    5344:	af00      	add	r7, sp, #0
    5346:	6078      	str	r0, [r7, #4]
    5348:	f000 f8a8 	bl	549c <vPortEnterCritical>
    534c:	687b      	ldr	r3, [r7, #4]
    534e:	6b9b      	ldr	r3, [r3, #56]	; 0x38
    5350:	2b00      	cmp	r3, #0
    5352:	bf14      	ite	ne
    5354:	2300      	movne	r3, #0
    5356:	2301      	moveq	r3, #1
    5358:	60fb      	str	r3, [r7, #12]
    535a:	f000 f8b1 	bl	54c0 <vPortExitCritical>
    535e:	68fb      	ldr	r3, [r7, #12]
    5360:	4618      	mov	r0, r3
    5362:	f107 0710 	add.w	r7, r7, #16
    5366:	46bd      	mov	sp, r7
    5368:	bd80      	pop	{r7, pc}
    536a:	bf00      	nop

0000536c <prvIsQueueFull>:
    536c:	b580      	push	{r7, lr}
    536e:	b084      	sub	sp, #16
    5370:	af00      	add	r7, sp, #0
    5372:	6078      	str	r0, [r7, #4]
    5374:	f000 f892 	bl	549c <vPortEnterCritical>
    5378:	687b      	ldr	r3, [r7, #4]
    537a:	6b9b      	ldr	r3, [r3, #56]	; 0x38
    537c:	461a      	mov	r2, r3
    537e:	687b      	ldr	r3, [r7, #4]
    5380:	6bdb      	ldr	r3, [r3, #60]	; 0x3c
    5382:	429a      	cmp	r2, r3
    5384:	bf14      	ite	ne
    5386:	2300      	movne	r3, #0
    5388:	2301      	moveq	r3, #1
    538a:	60fb      	str	r3, [r7, #12]
    538c:	f000 f898 	bl	54c0 <vPortExitCritical>
    5390:	68fb      	ldr	r3, [r7, #12]
    5392:	4618      	mov	r0, r3
    5394:	f107 0710 	add.w	r7, r7, #16
    5398:	46bd      	mov	sp, r7
    539a:	bd80      	pop	{r7, pc}

0000539c <pxPortInitialiseStack>:
    539c:	b480      	push	{r7}
    539e:	b085      	sub	sp, #20
    53a0:	af00      	add	r7, sp, #0
    53a2:	60f8      	str	r0, [r7, #12]
    53a4:	60b9      	str	r1, [r7, #8]
    53a6:	607a      	str	r2, [r7, #4]
    53a8:	68fb      	ldr	r3, [r7, #12]
    53aa:	f1a3 0304 	sub.w	r3, r3, #4
    53ae:	60fb      	str	r3, [r7, #12]
    53b0:	68fb      	ldr	r3, [r7, #12]
    53b2:	f04f 7280 	mov.w	r2, #16777216	; 0x1000000
    53b6:	601a      	str	r2, [r3, #0]
    53b8:	68fb      	ldr	r3, [r7, #12]
    53ba:	f1a3 0304 	sub.w	r3, r3, #4
    53be:	60fb      	str	r3, [r7, #12]
    53c0:	68ba      	ldr	r2, [r7, #8]
    53c2:	68fb      	ldr	r3, [r7, #12]
    53c4:	601a      	str	r2, [r3, #0]
    53c6:	68fb      	ldr	r3, [r7, #12]
    53c8:	f1a3 0304 	sub.w	r3, r3, #4
    53cc:	60fb      	str	r3, [r7, #12]
    53ce:	68fb      	ldr	r3, [r7, #12]
    53d0:	f04f 0200 	mov.w	r2, #0
    53d4:	601a      	str	r2, [r3, #0]
    53d6:	68fb      	ldr	r3, [r7, #12]
    53d8:	f1a3 0314 	sub.w	r3, r3, #20
    53dc:	60fb      	str	r3, [r7, #12]
    53de:	687a      	ldr	r2, [r7, #4]
    53e0:	68fb      	ldr	r3, [r7, #12]
    53e2:	601a      	str	r2, [r3, #0]
    53e4:	68fb      	ldr	r3, [r7, #12]
    53e6:	f1a3 0320 	sub.w	r3, r3, #32
    53ea:	60fb      	str	r3, [r7, #12]
    53ec:	68fb      	ldr	r3, [r7, #12]
    53ee:	4618      	mov	r0, r3
    53f0:	f107 0714 	add.w	r7, r7, #20
    53f4:	46bd      	mov	sp, r7
    53f6:	bc80      	pop	{r7}
    53f8:	4770      	bx	lr
    53fa:	bf00      	nop

000053fc <SVC_Handler>:
    53fc:	4b06      	ldr	r3, [pc, #24]	; (5418 <pxCurrentTCBConst2>)
    53fe:	6819      	ldr	r1, [r3, #0]
    5400:	6808      	ldr	r0, [r1, #0]
    5402:	e8b0 0ff0 	ldmia.w	r0!, {r4, r5, r6, r7, r8, r9, sl, fp}
    5406:	f380 8809 	msr	PSP, r0
    540a:	f04f 0000 	mov.w	r0, #0
    540e:	f380 8811 	msr	BASEPRI, r0
    5412:	f04e 0e0d 	orr.w	lr, lr, #13
    5416:	4770      	bx	lr

00005418 <pxCurrentTCBConst2>:
    5418:	20000028 	.word	0x20000028

0000541c <prvPortStartFirstTask>:
    541c:	4803      	ldr	r0, [pc, #12]	; (542c <prvPortStartFirstTask+0x10>)
    541e:	6800      	ldr	r0, [r0, #0]
    5420:	6800      	ldr	r0, [r0, #0]
    5422:	f380 8808 	msr	MSP, r0
    5426:	b662      	cpsie	i
    5428:	df00      	svc	0
    542a:	bf00      	nop
    542c:	e000ed08 	.word	0xe000ed08

00005430 <xPortStartScheduler>:
    5430:	b580      	push	{r7, lr}
    5432:	af00      	add	r7, sp, #0
    5434:	f64e 5320 	movw	r3, #60704	; 0xed20
    5438:	f2ce 0300 	movt	r3, #57344	; 0xe000
    543c:	f64e 5220 	movw	r2, #60704	; 0xed20
    5440:	f2ce 0200 	movt	r2, #57344	; 0xe000
    5444:	6812      	ldr	r2, [r2, #0]
    5446:	f442 027f 	orr.w	r2, r2, #16711680	; 0xff0000
    544a:	601a      	str	r2, [r3, #0]
    544c:	f64e 5320 	movw	r3, #60704	; 0xed20
    5450:	f2ce 0300 	movt	r3, #57344	; 0xe000
    5454:	f64e 5220 	movw	r2, #60704	; 0xed20
    5458:	f2ce 0200 	movt	r2, #57344	; 0xe000
    545c:	6812      	ldr	r2, [r2, #0]
    545e:	f042 427f 	orr.w	r2, r2, #4278190080	; 0xff000000
    5462:	601a      	str	r2, [r3, #0]
    5464:	f000 f884 	bl	5570 <vPortSetupTimerInterrupt>
    5468:	f240 0308 	movw	r3, #8
    546c:	f2c2 0300 	movt	r3, #8192	; 0x2000
    5470:	f04f 0200 	mov.w	r2, #0
    5474:	601a      	str	r2, [r3, #0]
    5476:	f7ff ffd1 	bl	541c <prvPortStartFirstTask>
    547a:	f04f 0300 	mov.w	r3, #0
    547e:	4618      	mov	r0, r3
    5480:	bd80      	pop	{r7, pc}
    5482:	bf00      	nop

00005484 <vPortYieldFromISR>:
    5484:	b480      	push	{r7}
    5486:	af00      	add	r7, sp, #0
    5488:	f64e 5304 	movw	r3, #60676	; 0xed04
    548c:	f2ce 0300 	movt	r3, #57344	; 0xe000
    5490:	f04f 5280 	mov.w	r2, #268435456	; 0x10000000
    5494:	601a      	str	r2, [r3, #0]
    5496:	46bd      	mov	sp, r7
    5498:	bc80      	pop	{r7}
    549a:	4770      	bx	lr

0000549c <vPortEnterCritical>:
    549c:	b580      	push	{r7, lr}
    549e:	af00      	add	r7, sp, #0
    54a0:	f000 f828 	bl	54f4 <ulPortSetInterruptMask>
    54a4:	f240 0308 	movw	r3, #8
    54a8:	f2c2 0300 	movt	r3, #8192	; 0x2000
    54ac:	681b      	ldr	r3, [r3, #0]
    54ae:	f103 0201 	add.w	r2, r3, #1
    54b2:	f240 0308 	movw	r3, #8
    54b6:	f2c2 0300 	movt	r3, #8192	; 0x2000
    54ba:	601a      	str	r2, [r3, #0]
    54bc:	bd80      	pop	{r7, pc}
    54be:	bf00      	nop

000054c0 <vPortExitCritical>:
    54c0:	b580      	push	{r7, lr}
    54c2:	af00      	add	r7, sp, #0
    54c4:	f240 0308 	movw	r3, #8
    54c8:	f2c2 0300 	movt	r3, #8192	; 0x2000
    54cc:	681b      	ldr	r3, [r3, #0]
    54ce:	f103 32ff 	add.w	r2, r3, #4294967295
    54d2:	f240 0308 	movw	r3, #8
    54d6:	f2c2 0300 	movt	r3, #8192	; 0x2000
    54da:	601a      	str	r2, [r3, #0]
    54dc:	f240 0308 	movw	r3, #8
    54e0:	f2c2 0300 	movt	r3, #8192	; 0x2000
    54e4:	681b      	ldr	r3, [r3, #0]
    54e6:	2b00      	cmp	r3, #0
    54e8:	d103      	bne.n	54f2 <vPortExitCritical+0x32>
    54ea:	f04f 0000 	mov.w	r0, #0
    54ee:	f000 f80b 	bl	5508 <vPortClearInterruptMask>
    54f2:	bd80      	pop	{r7, pc}

000054f4 <ulPortSetInterruptMask>:
    54f4:	f3ef 8011 	mrs	r0, BASEPRI
    54f8:	f04f 01bf 	mov.w	r1, #191	; 0xbf
    54fc:	f381 8811 	msr	BASEPRI, r1
    5500:	4770      	bx	lr
    5502:	f04f 0300 	mov.w	r3, #0
    5506:	4618      	mov	r0, r3

00005508 <vPortClearInterruptMask>:
    5508:	f380 8811 	msr	BASEPRI, r0
    550c:	4770      	bx	lr
    550e:	bf00      	nop

00005510 <PendSV_Handler>:
    5510:	f3ef 8009 	mrs	r0, PSP
    5514:	4b0c      	ldr	r3, [pc, #48]	; (5548 <pxCurrentTCBConst>)
    5516:	681a      	ldr	r2, [r3, #0]
    5518:	e920 0ff0 	stmdb	r0!, {r4, r5, r6, r7, r8, r9, sl, fp}
    551c:	6010      	str	r0, [r2, #0]
    551e:	e92d 4008 	stmdb	sp!, {r3, lr}
    5522:	f04f 00bf 	mov.w	r0, #191	; 0xbf
    5526:	f380 8811 	msr	BASEPRI, r0
    552a:	f7fd ff7d 	bl	3428 <vTaskSwitchContext>
    552e:	f04f 0000 	mov.w	r0, #0
    5532:	f380 8811 	msr	BASEPRI, r0
    5536:	e8bd 4008 	ldmia.w	sp!, {r3, lr}
    553a:	6819      	ldr	r1, [r3, #0]
    553c:	6808      	ldr	r0, [r1, #0]
    553e:	e8b0 0ff0 	ldmia.w	r0!, {r4, r5, r6, r7, r8, r9, sl, fp}
    5542:	f380 8809 	msr	PSP, r0
    5546:	4770      	bx	lr

00005548 <pxCurrentTCBConst>:
    5548:	20000028 	.word	0x20000028

0000554c <SysTick_Handler>:
    554c:	b580      	push	{r7, lr}
    554e:	af00      	add	r7, sp, #0
    5550:	f64e 5304 	movw	r3, #60676	; 0xed04
    5554:	f2ce 0300 	movt	r3, #57344	; 0xe000
    5558:	f04f 5280 	mov.w	r2, #268435456	; 0x10000000
    555c:	601a      	str	r2, [r3, #0]
    555e:	f7ff ffc9 	bl	54f4 <ulPortSetInterruptMask>
    5562:	f7fd fe7b 	bl	325c <vTaskIncrementTick>
    5566:	f04f 0000 	mov.w	r0, #0
    556a:	f7ff ffcd 	bl	5508 <vPortClearInterruptMask>
    556e:	bd80      	pop	{r7, pc}

00005570 <vPortSetupTimerInterrupt>:
    5570:	b480      	push	{r7}
    5572:	af00      	add	r7, sp, #0
    5574:	f24e 0314 	movw	r3, #57364	; 0xe014
    5578:	f2ce 0300 	movt	r3, #57344	; 0xe000
    557c:	f644 621f 	movw	r2, #19999	; 0x4e1f
    5580:	601a      	str	r2, [r3, #0]
    5582:	f24e 0310 	movw	r3, #57360	; 0xe010
    5586:	f2ce 0300 	movt	r3, #57344	; 0xe000
    558a:	f04f 0207 	mov.w	r2, #7
    558e:	601a      	str	r2, [r3, #0]
    5590:	46bd      	mov	sp, r7
    5592:	bc80      	pop	{r7}
    5594:	4770      	bx	lr
    5596:	bf00      	nop

00005598 <QEIEnable>:
    5598:	b480      	push	{r7}
    559a:	b083      	sub	sp, #12
    559c:	af00      	add	r7, sp, #0
    559e:	6078      	str	r0, [r7, #4]
    55a0:	687b      	ldr	r3, [r7, #4]
    55a2:	687a      	ldr	r2, [r7, #4]
    55a4:	6812      	ldr	r2, [r2, #0]
    55a6:	f042 0201 	orr.w	r2, r2, #1
    55aa:	601a      	str	r2, [r3, #0]
    55ac:	f107 070c 	add.w	r7, r7, #12
    55b0:	46bd      	mov	sp, r7
    55b2:	bc80      	pop	{r7}
    55b4:	4770      	bx	lr
    55b6:	bf00      	nop

000055b8 <QEIConfigure>:
    55b8:	b480      	push	{r7}
    55ba:	b085      	sub	sp, #20
    55bc:	af00      	add	r7, sp, #0
    55be:	60f8      	str	r0, [r7, #12]
    55c0:	60b9      	str	r1, [r7, #8]
    55c2:	607a      	str	r2, [r7, #4]
    55c4:	68fb      	ldr	r3, [r7, #12]
    55c6:	68fa      	ldr	r2, [r7, #12]
    55c8:	6812      	ldr	r2, [r2, #0]
    55ca:	f022 011e 	bic.w	r1, r2, #30
    55ce:	68ba      	ldr	r2, [r7, #8]
    55d0:	430a      	orrs	r2, r1
    55d2:	601a      	str	r2, [r3, #0]
    55d4:	68fb      	ldr	r3, [r7, #12]
    55d6:	f103 030c 	add.w	r3, r3, #12
    55da:	687a      	ldr	r2, [r7, #4]
    55dc:	601a      	str	r2, [r3, #0]
    55de:	f107 0714 	add.w	r7, r7, #20
    55e2:	46bd      	mov	sp, r7
    55e4:	bc80      	pop	{r7}
    55e6:	4770      	bx	lr

000055e8 <QEIDirectionGet>:
    55e8:	b480      	push	{r7}
    55ea:	b083      	sub	sp, #12
    55ec:	af00      	add	r7, sp, #0
    55ee:	6078      	str	r0, [r7, #4]
    55f0:	687b      	ldr	r3, [r7, #4]
    55f2:	f103 0304 	add.w	r3, r3, #4
    55f6:	681b      	ldr	r3, [r3, #0]
    55f8:	f003 0302 	and.w	r3, r3, #2
    55fc:	2b00      	cmp	r3, #0
    55fe:	d002      	beq.n	5606 <QEIDirectionGet+0x1e>
    5600:	f04f 33ff 	mov.w	r3, #4294967295
    5604:	e001      	b.n	560a <QEIDirectionGet+0x22>
    5606:	f04f 0301 	mov.w	r3, #1
    560a:	4618      	mov	r0, r3
    560c:	f107 070c 	add.w	r7, r7, #12
    5610:	46bd      	mov	sp, r7
    5612:	bc80      	pop	{r7}
    5614:	4770      	bx	lr
    5616:	bf00      	nop

00005618 <QEIVelocityEnable>:
    5618:	b480      	push	{r7}
    561a:	b083      	sub	sp, #12
    561c:	af00      	add	r7, sp, #0
    561e:	6078      	str	r0, [r7, #4]
    5620:	687b      	ldr	r3, [r7, #4]
    5622:	687a      	ldr	r2, [r7, #4]
    5624:	6812      	ldr	r2, [r2, #0]
    5626:	f042 0220 	orr.w	r2, r2, #32
    562a:	601a      	str	r2, [r3, #0]
    562c:	f107 070c 	add.w	r7, r7, #12
    5630:	46bd      	mov	sp, r7
    5632:	bc80      	pop	{r7}
    5634:	4770      	bx	lr
    5636:	bf00      	nop

00005638 <QEIVelocityConfigure>:
    5638:	b480      	push	{r7}
    563a:	b085      	sub	sp, #20
    563c:	af00      	add	r7, sp, #0
    563e:	60f8      	str	r0, [r7, #12]
    5640:	60b9      	str	r1, [r7, #8]
    5642:	607a      	str	r2, [r7, #4]
    5644:	68fb      	ldr	r3, [r7, #12]
    5646:	68fa      	ldr	r2, [r7, #12]
    5648:	6812      	ldr	r2, [r2, #0]
    564a:	f422 71e0 	bic.w	r1, r2, #448	; 0x1c0
    564e:	68ba      	ldr	r2, [r7, #8]
    5650:	430a      	orrs	r2, r1
    5652:	601a      	str	r2, [r3, #0]
    5654:	68fb      	ldr	r3, [r7, #12]
    5656:	f103 0310 	add.w	r3, r3, #16
    565a:	687a      	ldr	r2, [r7, #4]
    565c:	f102 32ff 	add.w	r2, r2, #4294967295
    5660:	601a      	str	r2, [r3, #0]
    5662:	f107 0714 	add.w	r7, r7, #20
    5666:	46bd      	mov	sp, r7
    5668:	bc80      	pop	{r7}
    566a:	4770      	bx	lr

0000566c <QEIVelocityGet>:
    566c:	b480      	push	{r7}
    566e:	b083      	sub	sp, #12
    5670:	af00      	add	r7, sp, #0
    5672:	6078      	str	r0, [r7, #4]
    5674:	687b      	ldr	r3, [r7, #4]
    5676:	f103 031c 	add.w	r3, r3, #28
    567a:	681b      	ldr	r3, [r3, #0]
    567c:	4618      	mov	r0, r3
    567e:	f107 070c 	add.w	r7, r7, #12
    5682:	46bd      	mov	sp, r7
    5684:	bc80      	pop	{r7}
    5686:	4770      	bx	lr

00005688 <QEIIntEnable>:
    5688:	b480      	push	{r7}
    568a:	b083      	sub	sp, #12
    568c:	af00      	add	r7, sp, #0
    568e:	6078      	str	r0, [r7, #4]
    5690:	6039      	str	r1, [r7, #0]
    5692:	687b      	ldr	r3, [r7, #4]
    5694:	f103 0320 	add.w	r3, r3, #32
    5698:	687a      	ldr	r2, [r7, #4]
    569a:	f102 0220 	add.w	r2, r2, #32
    569e:	6811      	ldr	r1, [r2, #0]
    56a0:	683a      	ldr	r2, [r7, #0]
    56a2:	430a      	orrs	r2, r1
    56a4:	601a      	str	r2, [r3, #0]
    56a6:	f107 070c 	add.w	r7, r7, #12
    56aa:	46bd      	mov	sp, r7
    56ac:	bc80      	pop	{r7}
    56ae:	4770      	bx	lr

000056b0 <QEIIntStatus>:
    56b0:	b480      	push	{r7}
    56b2:	b083      	sub	sp, #12
    56b4:	af00      	add	r7, sp, #0
    56b6:	6078      	str	r0, [r7, #4]
    56b8:	460b      	mov	r3, r1
    56ba:	70fb      	strb	r3, [r7, #3]
    56bc:	78fb      	ldrb	r3, [r7, #3]
    56be:	2b00      	cmp	r3, #0
    56c0:	d004      	beq.n	56cc <QEIIntStatus+0x1c>
    56c2:	687b      	ldr	r3, [r7, #4]
    56c4:	f103 0328 	add.w	r3, r3, #40	; 0x28
    56c8:	681b      	ldr	r3, [r3, #0]
    56ca:	e003      	b.n	56d4 <QEIIntStatus+0x24>
    56cc:	687b      	ldr	r3, [r7, #4]
    56ce:	f103 0324 	add.w	r3, r3, #36	; 0x24
    56d2:	681b      	ldr	r3, [r3, #0]
    56d4:	4618      	mov	r0, r3
    56d6:	f107 070c 	add.w	r7, r7, #12
    56da:	46bd      	mov	sp, r7
    56dc:	bc80      	pop	{r7}
    56de:	4770      	bx	lr

000056e0 <QEIIntClear>:
    56e0:	b480      	push	{r7}
    56e2:	b083      	sub	sp, #12
    56e4:	af00      	add	r7, sp, #0
    56e6:	6078      	str	r0, [r7, #4]
    56e8:	6039      	str	r1, [r7, #0]
    56ea:	687b      	ldr	r3, [r7, #4]
    56ec:	f103 0328 	add.w	r3, r3, #40	; 0x28
    56f0:	683a      	ldr	r2, [r7, #0]
    56f2:	601a      	str	r2, [r3, #0]
    56f4:	f107 070c 	add.w	r7, r7, #12
    56f8:	46bd      	mov	sp, r7
    56fa:	bc80      	pop	{r7}
    56fc:	4770      	bx	lr
    56fe:	bf00      	nop

00005700 <pvPortMalloc>:
    5700:	b580      	push	{r7, lr}
    5702:	b08a      	sub	sp, #40	; 0x28
    5704:	af00      	add	r7, sp, #0
    5706:	6078      	str	r0, [r7, #4]
    5708:	f04f 0300 	mov.w	r3, #0
    570c:	61fb      	str	r3, [r7, #28]
    570e:	f7fd fcdf 	bl	30d0 <vTaskSuspendAll>
    5712:	f642 1318 	movw	r3, #10520	; 0x2918
    5716:	f2c2 0300 	movt	r3, #8192	; 0x2000
    571a:	681b      	ldr	r3, [r3, #0]
    571c:	2b00      	cmp	r3, #0
    571e:	d133      	bne.n	5788 <pvPortMalloc+0x88>
    5720:	f642 1308 	movw	r3, #10504	; 0x2908
    5724:	f2c2 0300 	movt	r3, #8192	; 0x2000
    5728:	f240 12f8 	movw	r2, #504	; 0x1f8
    572c:	f2c2 0200 	movt	r2, #8192	; 0x2000
    5730:	601a      	str	r2, [r3, #0]
    5732:	f642 1308 	movw	r3, #10504	; 0x2908
    5736:	f2c2 0300 	movt	r3, #8192	; 0x2000
    573a:	f04f 0200 	mov.w	r2, #0
    573e:	605a      	str	r2, [r3, #4]
    5740:	f642 1310 	movw	r3, #10512	; 0x2910
    5744:	f2c2 0300 	movt	r3, #8192	; 0x2000
    5748:	f242 7210 	movw	r2, #10000	; 0x2710
    574c:	605a      	str	r2, [r3, #4]
    574e:	f642 1310 	movw	r3, #10512	; 0x2910
    5752:	f2c2 0300 	movt	r3, #8192	; 0x2000
    5756:	f04f 0200 	mov.w	r2, #0
    575a:	601a      	str	r2, [r3, #0]
    575c:	f240 13f8 	movw	r3, #504	; 0x1f8
    5760:	f2c2 0300 	movt	r3, #8192	; 0x2000
    5764:	617b      	str	r3, [r7, #20]
    5766:	697b      	ldr	r3, [r7, #20]
    5768:	f242 7210 	movw	r2, #10000	; 0x2710
    576c:	605a      	str	r2, [r3, #4]
    576e:	697a      	ldr	r2, [r7, #20]
    5770:	f642 1310 	movw	r3, #10512	; 0x2910
    5774:	f2c2 0300 	movt	r3, #8192	; 0x2000
    5778:	6013      	str	r3, [r2, #0]
    577a:	f642 1318 	movw	r3, #10520	; 0x2918
    577e:	f2c2 0300 	movt	r3, #8192	; 0x2000
    5782:	f04f 0201 	mov.w	r2, #1
    5786:	601a      	str	r2, [r3, #0]
    5788:	687b      	ldr	r3, [r7, #4]
    578a:	2b00      	cmp	r3, #0
    578c:	d012      	beq.n	57b4 <pvPortMalloc+0xb4>
    578e:	f646 2334 	movw	r3, #27188	; 0x6a34
    5792:	f2c0 0300 	movt	r3, #0
    5796:	881b      	ldrh	r3, [r3, #0]
    5798:	687a      	ldr	r2, [r7, #4]
    579a:	18d3      	adds	r3, r2, r3
    579c:	607b      	str	r3, [r7, #4]
    579e:	687b      	ldr	r3, [r7, #4]
    57a0:	f003 0307 	and.w	r3, r3, #7
    57a4:	2b00      	cmp	r3, #0
    57a6:	d005      	beq.n	57b4 <pvPortMalloc+0xb4>
    57a8:	687b      	ldr	r3, [r7, #4]
    57aa:	f023 0307 	bic.w	r3, r3, #7
    57ae:	f103 0308 	add.w	r3, r3, #8
    57b2:	607b      	str	r3, [r7, #4]
    57b4:	687b      	ldr	r3, [r7, #4]
    57b6:	2b00      	cmp	r3, #0
    57b8:	d072      	beq.n	58a0 <pvPortMalloc+0x1a0>
    57ba:	687a      	ldr	r2, [r7, #4]
    57bc:	f242 730f 	movw	r3, #9999	; 0x270f
    57c0:	429a      	cmp	r2, r3
    57c2:	d86d      	bhi.n	58a0 <pvPortMalloc+0x1a0>
    57c4:	f642 1308 	movw	r3, #10504	; 0x2908
    57c8:	f2c2 0300 	movt	r3, #8192	; 0x2000
    57cc:	623b      	str	r3, [r7, #32]
    57ce:	f642 1308 	movw	r3, #10504	; 0x2908
    57d2:	f2c2 0300 	movt	r3, #8192	; 0x2000
    57d6:	681b      	ldr	r3, [r3, #0]
    57d8:	627b      	str	r3, [r7, #36]	; 0x24
    57da:	e004      	b.n	57e6 <pvPortMalloc+0xe6>
    57dc:	6a7b      	ldr	r3, [r7, #36]	; 0x24
    57de:	623b      	str	r3, [r7, #32]
    57e0:	6a7b      	ldr	r3, [r7, #36]	; 0x24
    57e2:	681b      	ldr	r3, [r3, #0]
    57e4:	627b      	str	r3, [r7, #36]	; 0x24
    57e6:	6a7b      	ldr	r3, [r7, #36]	; 0x24
    57e8:	685a      	ldr	r2, [r3, #4]
    57ea:	687b      	ldr	r3, [r7, #4]
    57ec:	429a      	cmp	r2, r3
    57ee:	d203      	bcs.n	57f8 <pvPortMalloc+0xf8>
    57f0:	6a7b      	ldr	r3, [r7, #36]	; 0x24
    57f2:	681b      	ldr	r3, [r3, #0]
    57f4:	2b00      	cmp	r3, #0
    57f6:	d1f1      	bne.n	57dc <pvPortMalloc+0xdc>
    57f8:	6a7a      	ldr	r2, [r7, #36]	; 0x24
    57fa:	f642 1310 	movw	r3, #10512	; 0x2910
    57fe:	f2c2 0300 	movt	r3, #8192	; 0x2000
    5802:	429a      	cmp	r2, r3
    5804:	d04c      	beq.n	58a0 <pvPortMalloc+0x1a0>
    5806:	6a3b      	ldr	r3, [r7, #32]
    5808:	681a      	ldr	r2, [r3, #0]
    580a:	f646 2334 	movw	r3, #27188	; 0x6a34
    580e:	f2c0 0300 	movt	r3, #0
    5812:	881b      	ldrh	r3, [r3, #0]
    5814:	18d3      	adds	r3, r2, r3
    5816:	61fb      	str	r3, [r7, #28]
    5818:	6a7b      	ldr	r3, [r7, #36]	; 0x24
    581a:	681a      	ldr	r2, [r3, #0]
    581c:	6a3b      	ldr	r3, [r7, #32]
    581e:	601a      	str	r2, [r3, #0]
    5820:	6a7b      	ldr	r3, [r7, #36]	; 0x24
    5822:	685a      	ldr	r2, [r3, #4]
    5824:	687b      	ldr	r3, [r7, #4]
    5826:	1ad2      	subs	r2, r2, r3
    5828:	f646 2334 	movw	r3, #27188	; 0x6a34
    582c:	f2c0 0300 	movt	r3, #0
    5830:	881b      	ldrh	r3, [r3, #0]
    5832:	ea4f 0343 	mov.w	r3, r3, lsl #1
    5836:	429a      	cmp	r2, r3
    5838:	d925      	bls.n	5886 <pvPortMalloc+0x186>
    583a:	6a7a      	ldr	r2, [r7, #36]	; 0x24
    583c:	687b      	ldr	r3, [r7, #4]
    583e:	18d3      	adds	r3, r2, r3
    5840:	613b      	str	r3, [r7, #16]
    5842:	6a7b      	ldr	r3, [r7, #36]	; 0x24
    5844:	685a      	ldr	r2, [r3, #4]
    5846:	687b      	ldr	r3, [r7, #4]
    5848:	1ad2      	subs	r2, r2, r3
    584a:	693b      	ldr	r3, [r7, #16]
    584c:	605a      	str	r2, [r3, #4]
    584e:	6a7b      	ldr	r3, [r7, #36]	; 0x24
    5850:	687a      	ldr	r2, [r7, #4]
    5852:	605a      	str	r2, [r3, #4]
    5854:	693b      	ldr	r3, [r7, #16]
    5856:	685b      	ldr	r3, [r3, #4]
    5858:	60fb      	str	r3, [r7, #12]
    585a:	f642 1308 	movw	r3, #10504	; 0x2908
    585e:	f2c2 0300 	movt	r3, #8192	; 0x2000
    5862:	61bb      	str	r3, [r7, #24]
    5864:	e002      	b.n	586c <pvPortMalloc+0x16c>
    5866:	69bb      	ldr	r3, [r7, #24]
    5868:	681b      	ldr	r3, [r3, #0]
    586a:	61bb      	str	r3, [r7, #24]
    586c:	69bb      	ldr	r3, [r7, #24]
    586e:	681b      	ldr	r3, [r3, #0]
    5870:	685a      	ldr	r2, [r3, #4]
    5872:	68fb      	ldr	r3, [r7, #12]
    5874:	429a      	cmp	r2, r3
    5876:	d3f6      	bcc.n	5866 <pvPortMalloc+0x166>
    5878:	69bb      	ldr	r3, [r7, #24]
    587a:	681a      	ldr	r2, [r3, #0]
    587c:	693b      	ldr	r3, [r7, #16]
    587e:	601a      	str	r2, [r3, #0]
    5880:	69bb      	ldr	r3, [r7, #24]
    5882:	693a      	ldr	r2, [r7, #16]
    5884:	601a      	str	r2, [r3, #0]
    5886:	f240 030c 	movw	r3, #12
    588a:	f2c2 0300 	movt	r3, #8192	; 0x2000
    588e:	681a      	ldr	r2, [r3, #0]
    5890:	6a7b      	ldr	r3, [r7, #36]	; 0x24
    5892:	685b      	ldr	r3, [r3, #4]
    5894:	1ad2      	subs	r2, r2, r3
    5896:	f240 030c 	movw	r3, #12
    589a:	f2c2 0300 	movt	r3, #8192	; 0x2000
    589e:	601a      	str	r2, [r3, #0]
    58a0:	f7fd fc28 	bl	30f4 <xTaskResumeAll>
    58a4:	69fb      	ldr	r3, [r7, #28]
    58a6:	4618      	mov	r0, r3
    58a8:	f107 0728 	add.w	r7, r7, #40	; 0x28
    58ac:	46bd      	mov	sp, r7
    58ae:	bd80      	pop	{r7, pc}

000058b0 <vPortFree>:
    58b0:	b580      	push	{r7, lr}
    58b2:	b086      	sub	sp, #24
    58b4:	af00      	add	r7, sp, #0
    58b6:	6078      	str	r0, [r7, #4]
    58b8:	687b      	ldr	r3, [r7, #4]
    58ba:	613b      	str	r3, [r7, #16]
    58bc:	687b      	ldr	r3, [r7, #4]
    58be:	2b00      	cmp	r3, #0
    58c0:	d035      	beq.n	592e <vPortFree+0x7e>
    58c2:	f646 2334 	movw	r3, #27188	; 0x6a34
    58c6:	f2c0 0300 	movt	r3, #0
    58ca:	881b      	ldrh	r3, [r3, #0]
    58cc:	f1c3 0300 	rsb	r3, r3, #0
    58d0:	693a      	ldr	r2, [r7, #16]
    58d2:	18d3      	adds	r3, r2, r3
    58d4:	613b      	str	r3, [r7, #16]
    58d6:	693b      	ldr	r3, [r7, #16]
    58d8:	60fb      	str	r3, [r7, #12]
    58da:	f7fd fbf9 	bl	30d0 <vTaskSuspendAll>
    58de:	68fb      	ldr	r3, [r7, #12]
    58e0:	685b      	ldr	r3, [r3, #4]
    58e2:	60bb      	str	r3, [r7, #8]
    58e4:	f642 1308 	movw	r3, #10504	; 0x2908
    58e8:	f2c2 0300 	movt	r3, #8192	; 0x2000
    58ec:	617b      	str	r3, [r7, #20]
    58ee:	e002      	b.n	58f6 <vPortFree+0x46>
    58f0:	697b      	ldr	r3, [r7, #20]
    58f2:	681b      	ldr	r3, [r3, #0]
    58f4:	617b      	str	r3, [r7, #20]
    58f6:	697b      	ldr	r3, [r7, #20]
    58f8:	681b      	ldr	r3, [r3, #0]
    58fa:	685a      	ldr	r2, [r3, #4]
    58fc:	68bb      	ldr	r3, [r7, #8]
    58fe:	429a      	cmp	r2, r3
    5900:	d3f6      	bcc.n	58f0 <vPortFree+0x40>
    5902:	697b      	ldr	r3, [r7, #20]
    5904:	681a      	ldr	r2, [r3, #0]
    5906:	68fb      	ldr	r3, [r7, #12]
    5908:	601a      	str	r2, [r3, #0]
    590a:	697b      	ldr	r3, [r7, #20]
    590c:	68fa      	ldr	r2, [r7, #12]
    590e:	601a      	str	r2, [r3, #0]
    5910:	68fb      	ldr	r3, [r7, #12]
    5912:	685a      	ldr	r2, [r3, #4]
    5914:	f240 030c 	movw	r3, #12
    5918:	f2c2 0300 	movt	r3, #8192	; 0x2000
    591c:	681b      	ldr	r3, [r3, #0]
    591e:	18d2      	adds	r2, r2, r3
    5920:	f240 030c 	movw	r3, #12
    5924:	f2c2 0300 	movt	r3, #8192	; 0x2000
    5928:	601a      	str	r2, [r3, #0]
    592a:	f7fd fbe3 	bl	30f4 <xTaskResumeAll>
    592e:	f107 0718 	add.w	r7, r7, #24
    5932:	46bd      	mov	sp, r7
    5934:	bd80      	pop	{r7, pc}
    5936:	bf00      	nop

00005938 <__aeabi_drsub>:
    5938:	f081 4100 	eor.w	r1, r1, #2147483648	; 0x80000000
    593c:	e002      	b.n	5944 <__adddf3>
    593e:	bf00      	nop

00005940 <__aeabi_dsub>:
    5940:	f083 4300 	eor.w	r3, r3, #2147483648	; 0x80000000

00005944 <__adddf3>:
    5944:	b530      	push	{r4, r5, lr}
    5946:	ea4f 0441 	mov.w	r4, r1, lsl #1
    594a:	ea4f 0543 	mov.w	r5, r3, lsl #1
    594e:	ea94 0f05 	teq	r4, r5
    5952:	bf08      	it	eq
    5954:	ea90 0f02 	teqeq	r0, r2
    5958:	bf1f      	itttt	ne
    595a:	ea54 0c00 	orrsne.w	ip, r4, r0
    595e:	ea55 0c02 	orrsne.w	ip, r5, r2
    5962:	ea7f 5c64 	mvnsne.w	ip, r4, asr #21
    5966:	ea7f 5c65 	mvnsne.w	ip, r5, asr #21
    596a:	f000 80e2 	beq.w	5b32 <__adddf3+0x1ee>
    596e:	ea4f 5454 	mov.w	r4, r4, lsr #21
    5972:	ebd4 5555 	rsbs	r5, r4, r5, lsr #21
    5976:	bfb8      	it	lt
    5978:	426d      	neglt	r5, r5
    597a:	dd0c      	ble.n	5996 <__adddf3+0x52>
    597c:	442c      	add	r4, r5
    597e:	ea80 0202 	eor.w	r2, r0, r2
    5982:	ea81 0303 	eor.w	r3, r1, r3
    5986:	ea82 0000 	eor.w	r0, r2, r0
    598a:	ea83 0101 	eor.w	r1, r3, r1
    598e:	ea80 0202 	eor.w	r2, r0, r2
    5992:	ea81 0303 	eor.w	r3, r1, r3
    5996:	2d36      	cmp	r5, #54	; 0x36
    5998:	bf88      	it	hi
    599a:	bd30      	pophi	{r4, r5, pc}
    599c:	f011 4f00 	tst.w	r1, #2147483648	; 0x80000000
    59a0:	ea4f 3101 	mov.w	r1, r1, lsl #12
    59a4:	f44f 1c80 	mov.w	ip, #1048576	; 0x100000
    59a8:	ea4c 3111 	orr.w	r1, ip, r1, lsr #12
    59ac:	d002      	beq.n	59b4 <__adddf3+0x70>
    59ae:	4240      	negs	r0, r0
    59b0:	eb61 0141 	sbc.w	r1, r1, r1, lsl #1
    59b4:	f013 4f00 	tst.w	r3, #2147483648	; 0x80000000
    59b8:	ea4f 3303 	mov.w	r3, r3, lsl #12
    59bc:	ea4c 3313 	orr.w	r3, ip, r3, lsr #12
    59c0:	d002      	beq.n	59c8 <__adddf3+0x84>
    59c2:	4252      	negs	r2, r2
    59c4:	eb63 0343 	sbc.w	r3, r3, r3, lsl #1
    59c8:	ea94 0f05 	teq	r4, r5
    59cc:	f000 80a7 	beq.w	5b1e <__adddf3+0x1da>
    59d0:	f1a4 0401 	sub.w	r4, r4, #1
    59d4:	f1d5 0e20 	rsbs	lr, r5, #32
    59d8:	db0d      	blt.n	59f6 <__adddf3+0xb2>
    59da:	fa02 fc0e 	lsl.w	ip, r2, lr
    59de:	fa22 f205 	lsr.w	r2, r2, r5
    59e2:	1880      	adds	r0, r0, r2
    59e4:	f141 0100 	adc.w	r1, r1, #0
    59e8:	fa03 f20e 	lsl.w	r2, r3, lr
    59ec:	1880      	adds	r0, r0, r2
    59ee:	fa43 f305 	asr.w	r3, r3, r5
    59f2:	4159      	adcs	r1, r3
    59f4:	e00e      	b.n	5a14 <__adddf3+0xd0>
    59f6:	f1a5 0520 	sub.w	r5, r5, #32
    59fa:	f10e 0e20 	add.w	lr, lr, #32
    59fe:	2a01      	cmp	r2, #1
    5a00:	fa03 fc0e 	lsl.w	ip, r3, lr
    5a04:	bf28      	it	cs
    5a06:	f04c 0c02 	orrcs.w	ip, ip, #2
    5a0a:	fa43 f305 	asr.w	r3, r3, r5
    5a0e:	18c0      	adds	r0, r0, r3
    5a10:	eb51 71e3 	adcs.w	r1, r1, r3, asr #31
    5a14:	f001 4500 	and.w	r5, r1, #2147483648	; 0x80000000
    5a18:	d507      	bpl.n	5a2a <__adddf3+0xe6>
    5a1a:	f04f 0e00 	mov.w	lr, #0
    5a1e:	f1dc 0c00 	rsbs	ip, ip, #0
    5a22:	eb7e 0000 	sbcs.w	r0, lr, r0
    5a26:	eb6e 0101 	sbc.w	r1, lr, r1
    5a2a:	f5b1 1f80 	cmp.w	r1, #1048576	; 0x100000
    5a2e:	d31b      	bcc.n	5a68 <__adddf3+0x124>
    5a30:	f5b1 1f00 	cmp.w	r1, #2097152	; 0x200000
    5a34:	d30c      	bcc.n	5a50 <__adddf3+0x10c>
    5a36:	0849      	lsrs	r1, r1, #1
    5a38:	ea5f 0030 	movs.w	r0, r0, rrx
    5a3c:	ea4f 0c3c 	mov.w	ip, ip, rrx
    5a40:	f104 0401 	add.w	r4, r4, #1
    5a44:	ea4f 5244 	mov.w	r2, r4, lsl #21
    5a48:	f512 0f80 	cmn.w	r2, #4194304	; 0x400000
    5a4c:	f080 809a 	bcs.w	5b84 <__adddf3+0x240>
    5a50:	f1bc 4f00 	cmp.w	ip, #2147483648	; 0x80000000
    5a54:	bf08      	it	eq
    5a56:	ea5f 0c50 	movseq.w	ip, r0, lsr #1
    5a5a:	f150 0000 	adcs.w	r0, r0, #0
    5a5e:	eb41 5104 	adc.w	r1, r1, r4, lsl #20
    5a62:	ea41 0105 	orr.w	r1, r1, r5
    5a66:	bd30      	pop	{r4, r5, pc}
    5a68:	ea5f 0c4c 	movs.w	ip, ip, lsl #1
    5a6c:	4140      	adcs	r0, r0
    5a6e:	eb41 0101 	adc.w	r1, r1, r1
    5a72:	f411 1f80 	tst.w	r1, #1048576	; 0x100000
    5a76:	f1a4 0401 	sub.w	r4, r4, #1
    5a7a:	d1e9      	bne.n	5a50 <__adddf3+0x10c>
    5a7c:	f091 0f00 	teq	r1, #0
    5a80:	bf04      	itt	eq
    5a82:	4601      	moveq	r1, r0
    5a84:	2000      	moveq	r0, #0
    5a86:	fab1 f381 	clz	r3, r1
    5a8a:	bf08      	it	eq
    5a8c:	3320      	addeq	r3, #32
    5a8e:	f1a3 030b 	sub.w	r3, r3, #11
    5a92:	f1b3 0220 	subs.w	r2, r3, #32
    5a96:	da0c      	bge.n	5ab2 <__adddf3+0x16e>
    5a98:	320c      	adds	r2, #12
    5a9a:	dd08      	ble.n	5aae <__adddf3+0x16a>
    5a9c:	f102 0c14 	add.w	ip, r2, #20
    5aa0:	f1c2 020c 	rsb	r2, r2, #12
    5aa4:	fa01 f00c 	lsl.w	r0, r1, ip
    5aa8:	fa21 f102 	lsr.w	r1, r1, r2
    5aac:	e00c      	b.n	5ac8 <__adddf3+0x184>
    5aae:	f102 0214 	add.w	r2, r2, #20
    5ab2:	bfd8      	it	le
    5ab4:	f1c2 0c20 	rsble	ip, r2, #32
    5ab8:	fa01 f102 	lsl.w	r1, r1, r2
    5abc:	fa20 fc0c 	lsr.w	ip, r0, ip
    5ac0:	bfdc      	itt	le
    5ac2:	ea41 010c 	orrle.w	r1, r1, ip
    5ac6:	4090      	lslle	r0, r2
    5ac8:	1ae4      	subs	r4, r4, r3
    5aca:	bfa2      	ittt	ge
    5acc:	eb01 5104 	addge.w	r1, r1, r4, lsl #20
    5ad0:	4329      	orrge	r1, r5
    5ad2:	bd30      	popge	{r4, r5, pc}
    5ad4:	ea6f 0404 	mvn.w	r4, r4
    5ad8:	3c1f      	subs	r4, #31
    5ada:	da1c      	bge.n	5b16 <__adddf3+0x1d2>
    5adc:	340c      	adds	r4, #12
    5ade:	dc0e      	bgt.n	5afe <__adddf3+0x1ba>
    5ae0:	f104 0414 	add.w	r4, r4, #20
    5ae4:	f1c4 0220 	rsb	r2, r4, #32
    5ae8:	fa20 f004 	lsr.w	r0, r0, r4
    5aec:	fa01 f302 	lsl.w	r3, r1, r2
    5af0:	ea40 0003 	orr.w	r0, r0, r3
    5af4:	fa21 f304 	lsr.w	r3, r1, r4
    5af8:	ea45 0103 	orr.w	r1, r5, r3
    5afc:	bd30      	pop	{r4, r5, pc}
    5afe:	f1c4 040c 	rsb	r4, r4, #12
    5b02:	f1c4 0220 	rsb	r2, r4, #32
    5b06:	fa20 f002 	lsr.w	r0, r0, r2
    5b0a:	fa01 f304 	lsl.w	r3, r1, r4
    5b0e:	ea40 0003 	orr.w	r0, r0, r3
    5b12:	4629      	mov	r1, r5
    5b14:	bd30      	pop	{r4, r5, pc}
    5b16:	fa21 f004 	lsr.w	r0, r1, r4
    5b1a:	4629      	mov	r1, r5
    5b1c:	bd30      	pop	{r4, r5, pc}
    5b1e:	f094 0f00 	teq	r4, #0
    5b22:	f483 1380 	eor.w	r3, r3, #1048576	; 0x100000
    5b26:	bf06      	itte	eq
    5b28:	f481 1180 	eoreq.w	r1, r1, #1048576	; 0x100000
    5b2c:	3401      	addeq	r4, #1
    5b2e:	3d01      	subne	r5, #1
    5b30:	e74e      	b.n	59d0 <__adddf3+0x8c>
    5b32:	ea7f 5c64 	mvns.w	ip, r4, asr #21
    5b36:	bf18      	it	ne
    5b38:	ea7f 5c65 	mvnsne.w	ip, r5, asr #21
    5b3c:	d029      	beq.n	5b92 <__adddf3+0x24e>
    5b3e:	ea94 0f05 	teq	r4, r5
    5b42:	bf08      	it	eq
    5b44:	ea90 0f02 	teqeq	r0, r2
    5b48:	d005      	beq.n	5b56 <__adddf3+0x212>
    5b4a:	ea54 0c00 	orrs.w	ip, r4, r0
    5b4e:	bf04      	itt	eq
    5b50:	4619      	moveq	r1, r3
    5b52:	4610      	moveq	r0, r2
    5b54:	bd30      	pop	{r4, r5, pc}
    5b56:	ea91 0f03 	teq	r1, r3
    5b5a:	bf1e      	ittt	ne
    5b5c:	2100      	movne	r1, #0
    5b5e:	2000      	movne	r0, #0
    5b60:	bd30      	popne	{r4, r5, pc}
    5b62:	ea5f 5c54 	movs.w	ip, r4, lsr #21
    5b66:	d105      	bne.n	5b74 <__adddf3+0x230>
    5b68:	0040      	lsls	r0, r0, #1
    5b6a:	4149      	adcs	r1, r1
    5b6c:	bf28      	it	cs
    5b6e:	f041 4100 	orrcs.w	r1, r1, #2147483648	; 0x80000000
    5b72:	bd30      	pop	{r4, r5, pc}
    5b74:	f514 0480 	adds.w	r4, r4, #4194304	; 0x400000
    5b78:	bf3c      	itt	cc
    5b7a:	f501 1180 	addcc.w	r1, r1, #1048576	; 0x100000
    5b7e:	bd30      	popcc	{r4, r5, pc}
    5b80:	f001 4500 	and.w	r5, r1, #2147483648	; 0x80000000
    5b84:	f045 41fe 	orr.w	r1, r5, #2130706432	; 0x7f000000
    5b88:	f441 0170 	orr.w	r1, r1, #15728640	; 0xf00000
    5b8c:	f04f 0000 	mov.w	r0, #0
    5b90:	bd30      	pop	{r4, r5, pc}
    5b92:	ea7f 5c64 	mvns.w	ip, r4, asr #21
    5b96:	bf1a      	itte	ne
    5b98:	4619      	movne	r1, r3
    5b9a:	4610      	movne	r0, r2
    5b9c:	ea7f 5c65 	mvnseq.w	ip, r5, asr #21
    5ba0:	bf1c      	itt	ne
    5ba2:	460b      	movne	r3, r1
    5ba4:	4602      	movne	r2, r0
    5ba6:	ea50 3401 	orrs.w	r4, r0, r1, lsl #12
    5baa:	bf06      	itte	eq
    5bac:	ea52 3503 	orrseq.w	r5, r2, r3, lsl #12
    5bb0:	ea91 0f03 	teqeq	r1, r3
    5bb4:	f441 2100 	orrne.w	r1, r1, #524288	; 0x80000
    5bb8:	bd30      	pop	{r4, r5, pc}
    5bba:	bf00      	nop

00005bbc <__aeabi_ui2d>:
    5bbc:	f090 0f00 	teq	r0, #0
    5bc0:	bf04      	itt	eq
    5bc2:	2100      	moveq	r1, #0
    5bc4:	4770      	bxeq	lr
    5bc6:	b530      	push	{r4, r5, lr}
    5bc8:	f44f 6480 	mov.w	r4, #1024	; 0x400
    5bcc:	f104 0432 	add.w	r4, r4, #50	; 0x32
    5bd0:	f04f 0500 	mov.w	r5, #0
    5bd4:	f04f 0100 	mov.w	r1, #0
    5bd8:	e750      	b.n	5a7c <__adddf3+0x138>
    5bda:	bf00      	nop

00005bdc <__aeabi_i2d>:
    5bdc:	f090 0f00 	teq	r0, #0
    5be0:	bf04      	itt	eq
    5be2:	2100      	moveq	r1, #0
    5be4:	4770      	bxeq	lr
    5be6:	b530      	push	{r4, r5, lr}
    5be8:	f44f 6480 	mov.w	r4, #1024	; 0x400
    5bec:	f104 0432 	add.w	r4, r4, #50	; 0x32
    5bf0:	f010 4500 	ands.w	r5, r0, #2147483648	; 0x80000000
    5bf4:	bf48      	it	mi
    5bf6:	4240      	negmi	r0, r0
    5bf8:	f04f 0100 	mov.w	r1, #0
    5bfc:	e73e      	b.n	5a7c <__adddf3+0x138>
    5bfe:	bf00      	nop

00005c00 <__aeabi_f2d>:
    5c00:	0042      	lsls	r2, r0, #1
    5c02:	ea4f 01e2 	mov.w	r1, r2, asr #3
    5c06:	ea4f 0131 	mov.w	r1, r1, rrx
    5c0a:	ea4f 7002 	mov.w	r0, r2, lsl #28
    5c0e:	bf1f      	itttt	ne
    5c10:	f012 437f 	andsne.w	r3, r2, #4278190080	; 0xff000000
    5c14:	f093 4f7f 	teqne	r3, #4278190080	; 0xff000000
    5c18:	f081 5160 	eorne.w	r1, r1, #939524096	; 0x38000000
    5c1c:	4770      	bxne	lr
    5c1e:	f092 0f00 	teq	r2, #0
    5c22:	bf14      	ite	ne
    5c24:	f093 4f7f 	teqne	r3, #4278190080	; 0xff000000
    5c28:	4770      	bxeq	lr
    5c2a:	b530      	push	{r4, r5, lr}
    5c2c:	f44f 7460 	mov.w	r4, #896	; 0x380
    5c30:	f001 4500 	and.w	r5, r1, #2147483648	; 0x80000000
    5c34:	f021 4100 	bic.w	r1, r1, #2147483648	; 0x80000000
    5c38:	e720      	b.n	5a7c <__adddf3+0x138>
    5c3a:	bf00      	nop

00005c3c <__aeabi_ul2d>:
    5c3c:	ea50 0201 	orrs.w	r2, r0, r1
    5c40:	bf08      	it	eq
    5c42:	4770      	bxeq	lr
    5c44:	b530      	push	{r4, r5, lr}
    5c46:	f04f 0500 	mov.w	r5, #0
    5c4a:	e00a      	b.n	5c62 <__aeabi_l2d+0x16>

00005c4c <__aeabi_l2d>:
    5c4c:	ea50 0201 	orrs.w	r2, r0, r1
    5c50:	bf08      	it	eq
    5c52:	4770      	bxeq	lr
    5c54:	b530      	push	{r4, r5, lr}
    5c56:	f011 4500 	ands.w	r5, r1, #2147483648	; 0x80000000
    5c5a:	d502      	bpl.n	5c62 <__aeabi_l2d+0x16>
    5c5c:	4240      	negs	r0, r0
    5c5e:	eb61 0141 	sbc.w	r1, r1, r1, lsl #1
    5c62:	f44f 6480 	mov.w	r4, #1024	; 0x400
    5c66:	f104 0432 	add.w	r4, r4, #50	; 0x32
    5c6a:	ea5f 5c91 	movs.w	ip, r1, lsr #22
    5c6e:	f43f aedc 	beq.w	5a2a <__adddf3+0xe6>
    5c72:	f04f 0203 	mov.w	r2, #3
    5c76:	ea5f 0cdc 	movs.w	ip, ip, lsr #3
    5c7a:	bf18      	it	ne
    5c7c:	3203      	addne	r2, #3
    5c7e:	ea5f 0cdc 	movs.w	ip, ip, lsr #3
    5c82:	bf18      	it	ne
    5c84:	3203      	addne	r2, #3
    5c86:	eb02 02dc 	add.w	r2, r2, ip, lsr #3
    5c8a:	f1c2 0320 	rsb	r3, r2, #32
    5c8e:	fa00 fc03 	lsl.w	ip, r0, r3
    5c92:	fa20 f002 	lsr.w	r0, r0, r2
    5c96:	fa01 fe03 	lsl.w	lr, r1, r3
    5c9a:	ea40 000e 	orr.w	r0, r0, lr
    5c9e:	fa21 f102 	lsr.w	r1, r1, r2
    5ca2:	4414      	add	r4, r2
    5ca4:	e6c1      	b.n	5a2a <__adddf3+0xe6>
    5ca6:	bf00      	nop

00005ca8 <__aeabi_dmul>:
    5ca8:	b570      	push	{r4, r5, r6, lr}
    5caa:	f04f 0cff 	mov.w	ip, #255	; 0xff
    5cae:	f44c 6ce0 	orr.w	ip, ip, #1792	; 0x700
    5cb2:	ea1c 5411 	ands.w	r4, ip, r1, lsr #20
    5cb6:	bf1d      	ittte	ne
    5cb8:	ea1c 5513 	andsne.w	r5, ip, r3, lsr #20
    5cbc:	ea94 0f0c 	teqne	r4, ip
    5cc0:	ea95 0f0c 	teqne	r5, ip
    5cc4:	f000 f8de 	bleq	5e84 <__aeabi_dmul+0x1dc>
    5cc8:	442c      	add	r4, r5
    5cca:	ea81 0603 	eor.w	r6, r1, r3
    5cce:	ea21 514c 	bic.w	r1, r1, ip, lsl #21
    5cd2:	ea23 534c 	bic.w	r3, r3, ip, lsl #21
    5cd6:	ea50 3501 	orrs.w	r5, r0, r1, lsl #12
    5cda:	bf18      	it	ne
    5cdc:	ea52 3503 	orrsne.w	r5, r2, r3, lsl #12
    5ce0:	f441 1180 	orr.w	r1, r1, #1048576	; 0x100000
    5ce4:	f443 1380 	orr.w	r3, r3, #1048576	; 0x100000
    5ce8:	d038      	beq.n	5d5c <__aeabi_dmul+0xb4>
    5cea:	fba0 ce02 	umull	ip, lr, r0, r2
    5cee:	f04f 0500 	mov.w	r5, #0
    5cf2:	fbe1 e502 	umlal	lr, r5, r1, r2
    5cf6:	f006 4200 	and.w	r2, r6, #2147483648	; 0x80000000
    5cfa:	fbe0 e503 	umlal	lr, r5, r0, r3
    5cfe:	f04f 0600 	mov.w	r6, #0
    5d02:	fbe1 5603 	umlal	r5, r6, r1, r3
    5d06:	f09c 0f00 	teq	ip, #0
    5d0a:	bf18      	it	ne
    5d0c:	f04e 0e01 	orrne.w	lr, lr, #1
    5d10:	f1a4 04ff 	sub.w	r4, r4, #255	; 0xff
    5d14:	f5b6 7f00 	cmp.w	r6, #512	; 0x200
    5d18:	f564 7440 	sbc.w	r4, r4, #768	; 0x300
    5d1c:	d204      	bcs.n	5d28 <__aeabi_dmul+0x80>
    5d1e:	ea5f 0e4e 	movs.w	lr, lr, lsl #1
    5d22:	416d      	adcs	r5, r5
    5d24:	eb46 0606 	adc.w	r6, r6, r6
    5d28:	ea42 21c6 	orr.w	r1, r2, r6, lsl #11
    5d2c:	ea41 5155 	orr.w	r1, r1, r5, lsr #21
    5d30:	ea4f 20c5 	mov.w	r0, r5, lsl #11
    5d34:	ea40 505e 	orr.w	r0, r0, lr, lsr #21
    5d38:	ea4f 2ece 	mov.w	lr, lr, lsl #11
    5d3c:	f1b4 0cfd 	subs.w	ip, r4, #253	; 0xfd
    5d40:	bf88      	it	hi
    5d42:	f5bc 6fe0 	cmphi.w	ip, #1792	; 0x700
    5d46:	d81e      	bhi.n	5d86 <__aeabi_dmul+0xde>
    5d48:	f1be 4f00 	cmp.w	lr, #2147483648	; 0x80000000
    5d4c:	bf08      	it	eq
    5d4e:	ea5f 0e50 	movseq.w	lr, r0, lsr #1
    5d52:	f150 0000 	adcs.w	r0, r0, #0
    5d56:	eb41 5104 	adc.w	r1, r1, r4, lsl #20
    5d5a:	bd70      	pop	{r4, r5, r6, pc}
    5d5c:	f006 4600 	and.w	r6, r6, #2147483648	; 0x80000000
    5d60:	ea46 0101 	orr.w	r1, r6, r1
    5d64:	ea40 0002 	orr.w	r0, r0, r2
    5d68:	ea81 0103 	eor.w	r1, r1, r3
    5d6c:	ebb4 045c 	subs.w	r4, r4, ip, lsr #1
    5d70:	bfc2      	ittt	gt
    5d72:	ebd4 050c 	rsbsgt	r5, r4, ip
    5d76:	ea41 5104 	orrgt.w	r1, r1, r4, lsl #20
    5d7a:	bd70      	popgt	{r4, r5, r6, pc}
    5d7c:	f441 1180 	orr.w	r1, r1, #1048576	; 0x100000
    5d80:	f04f 0e00 	mov.w	lr, #0
    5d84:	3c01      	subs	r4, #1
    5d86:	f300 80ab 	bgt.w	5ee0 <__aeabi_dmul+0x238>
    5d8a:	f114 0f36 	cmn.w	r4, #54	; 0x36
    5d8e:	bfde      	ittt	le
    5d90:	2000      	movle	r0, #0
    5d92:	f001 4100 	andle.w	r1, r1, #2147483648	; 0x80000000
    5d96:	bd70      	pople	{r4, r5, r6, pc}
    5d98:	f1c4 0400 	rsb	r4, r4, #0
    5d9c:	3c20      	subs	r4, #32
    5d9e:	da35      	bge.n	5e0c <__aeabi_dmul+0x164>
    5da0:	340c      	adds	r4, #12
    5da2:	dc1b      	bgt.n	5ddc <__aeabi_dmul+0x134>
    5da4:	f104 0414 	add.w	r4, r4, #20
    5da8:	f1c4 0520 	rsb	r5, r4, #32
    5dac:	fa00 f305 	lsl.w	r3, r0, r5
    5db0:	fa20 f004 	lsr.w	r0, r0, r4
    5db4:	fa01 f205 	lsl.w	r2, r1, r5
    5db8:	ea40 0002 	orr.w	r0, r0, r2
    5dbc:	f001 4200 	and.w	r2, r1, #2147483648	; 0x80000000
    5dc0:	f021 4100 	bic.w	r1, r1, #2147483648	; 0x80000000
    5dc4:	eb10 70d3 	adds.w	r0, r0, r3, lsr #31
    5dc8:	fa21 f604 	lsr.w	r6, r1, r4
    5dcc:	eb42 0106 	adc.w	r1, r2, r6
    5dd0:	ea5e 0e43 	orrs.w	lr, lr, r3, lsl #1
    5dd4:	bf08      	it	eq
    5dd6:	ea20 70d3 	biceq.w	r0, r0, r3, lsr #31
    5dda:	bd70      	pop	{r4, r5, r6, pc}
    5ddc:	f1c4 040c 	rsb	r4, r4, #12
    5de0:	f1c4 0520 	rsb	r5, r4, #32
    5de4:	fa00 f304 	lsl.w	r3, r0, r4
    5de8:	fa20 f005 	lsr.w	r0, r0, r5
    5dec:	fa01 f204 	lsl.w	r2, r1, r4
    5df0:	ea40 0002 	orr.w	r0, r0, r2
    5df4:	f001 4100 	and.w	r1, r1, #2147483648	; 0x80000000
    5df8:	eb10 70d3 	adds.w	r0, r0, r3, lsr #31
    5dfc:	f141 0100 	adc.w	r1, r1, #0
    5e00:	ea5e 0e43 	orrs.w	lr, lr, r3, lsl #1
    5e04:	bf08      	it	eq
    5e06:	ea20 70d3 	biceq.w	r0, r0, r3, lsr #31
    5e0a:	bd70      	pop	{r4, r5, r6, pc}
    5e0c:	f1c4 0520 	rsb	r5, r4, #32
    5e10:	fa00 f205 	lsl.w	r2, r0, r5
    5e14:	ea4e 0e02 	orr.w	lr, lr, r2
    5e18:	fa20 f304 	lsr.w	r3, r0, r4
    5e1c:	fa01 f205 	lsl.w	r2, r1, r5
    5e20:	ea43 0302 	orr.w	r3, r3, r2
    5e24:	fa21 f004 	lsr.w	r0, r1, r4
    5e28:	f001 4100 	and.w	r1, r1, #2147483648	; 0x80000000
    5e2c:	fa21 f204 	lsr.w	r2, r1, r4
    5e30:	ea20 0002 	bic.w	r0, r0, r2
    5e34:	eb00 70d3 	add.w	r0, r0, r3, lsr #31
    5e38:	ea5e 0e43 	orrs.w	lr, lr, r3, lsl #1
    5e3c:	bf08      	it	eq
    5e3e:	ea20 70d3 	biceq.w	r0, r0, r3, lsr #31
    5e42:	bd70      	pop	{r4, r5, r6, pc}
    5e44:	f094 0f00 	teq	r4, #0
    5e48:	d10f      	bne.n	5e6a <__aeabi_dmul+0x1c2>
    5e4a:	f001 4600 	and.w	r6, r1, #2147483648	; 0x80000000
    5e4e:	0040      	lsls	r0, r0, #1
    5e50:	eb41 0101 	adc.w	r1, r1, r1
    5e54:	f411 1f80 	tst.w	r1, #1048576	; 0x100000
    5e58:	bf08      	it	eq
    5e5a:	3c01      	subeq	r4, #1
    5e5c:	d0f7      	beq.n	5e4e <__aeabi_dmul+0x1a6>
    5e5e:	ea41 0106 	orr.w	r1, r1, r6
    5e62:	f095 0f00 	teq	r5, #0
    5e66:	bf18      	it	ne
    5e68:	4770      	bxne	lr
    5e6a:	f003 4600 	and.w	r6, r3, #2147483648	; 0x80000000
    5e6e:	0052      	lsls	r2, r2, #1
    5e70:	eb43 0303 	adc.w	r3, r3, r3
    5e74:	f413 1f80 	tst.w	r3, #1048576	; 0x100000
    5e78:	bf08      	it	eq
    5e7a:	3d01      	subeq	r5, #1
    5e7c:	d0f7      	beq.n	5e6e <__aeabi_dmul+0x1c6>
    5e7e:	ea43 0306 	orr.w	r3, r3, r6
    5e82:	4770      	bx	lr
    5e84:	ea94 0f0c 	teq	r4, ip
    5e88:	ea0c 5513 	and.w	r5, ip, r3, lsr #20
    5e8c:	bf18      	it	ne
    5e8e:	ea95 0f0c 	teqne	r5, ip
    5e92:	d00c      	beq.n	5eae <__aeabi_dmul+0x206>
    5e94:	ea50 0641 	orrs.w	r6, r0, r1, lsl #1
    5e98:	bf18      	it	ne
    5e9a:	ea52 0643 	orrsne.w	r6, r2, r3, lsl #1
    5e9e:	d1d1      	bne.n	5e44 <__aeabi_dmul+0x19c>
    5ea0:	ea81 0103 	eor.w	r1, r1, r3
    5ea4:	f001 4100 	and.w	r1, r1, #2147483648	; 0x80000000
    5ea8:	f04f 0000 	mov.w	r0, #0
    5eac:	bd70      	pop	{r4, r5, r6, pc}
    5eae:	ea50 0641 	orrs.w	r6, r0, r1, lsl #1
    5eb2:	bf06      	itte	eq
    5eb4:	4610      	moveq	r0, r2
    5eb6:	4619      	moveq	r1, r3
    5eb8:	ea52 0643 	orrsne.w	r6, r2, r3, lsl #1
    5ebc:	d019      	beq.n	5ef2 <__aeabi_dmul+0x24a>
    5ebe:	ea94 0f0c 	teq	r4, ip
    5ec2:	d102      	bne.n	5eca <__aeabi_dmul+0x222>
    5ec4:	ea50 3601 	orrs.w	r6, r0, r1, lsl #12
    5ec8:	d113      	bne.n	5ef2 <__aeabi_dmul+0x24a>
    5eca:	ea95 0f0c 	teq	r5, ip
    5ece:	d105      	bne.n	5edc <__aeabi_dmul+0x234>
    5ed0:	ea52 3603 	orrs.w	r6, r2, r3, lsl #12
    5ed4:	bf1c      	itt	ne
    5ed6:	4610      	movne	r0, r2
    5ed8:	4619      	movne	r1, r3
    5eda:	d10a      	bne.n	5ef2 <__aeabi_dmul+0x24a>
    5edc:	ea81 0103 	eor.w	r1, r1, r3
    5ee0:	f001 4100 	and.w	r1, r1, #2147483648	; 0x80000000
    5ee4:	f041 41fe 	orr.w	r1, r1, #2130706432	; 0x7f000000
    5ee8:	f441 0170 	orr.w	r1, r1, #15728640	; 0xf00000
    5eec:	f04f 0000 	mov.w	r0, #0
    5ef0:	bd70      	pop	{r4, r5, r6, pc}
    5ef2:	f041 41fe 	orr.w	r1, r1, #2130706432	; 0x7f000000
    5ef6:	f441 0178 	orr.w	r1, r1, #16252928	; 0xf80000
    5efa:	bd70      	pop	{r4, r5, r6, pc}

00005efc <__aeabi_ddiv>:
    5efc:	b570      	push	{r4, r5, r6, lr}
    5efe:	f04f 0cff 	mov.w	ip, #255	; 0xff
    5f02:	f44c 6ce0 	orr.w	ip, ip, #1792	; 0x700
    5f06:	ea1c 5411 	ands.w	r4, ip, r1, lsr #20
    5f0a:	bf1d      	ittte	ne
    5f0c:	ea1c 5513 	andsne.w	r5, ip, r3, lsr #20
    5f10:	ea94 0f0c 	teqne	r4, ip
    5f14:	ea95 0f0c 	teqne	r5, ip
    5f18:	f000 f8a7 	bleq	606a <__aeabi_ddiv+0x16e>
    5f1c:	eba4 0405 	sub.w	r4, r4, r5
    5f20:	ea81 0e03 	eor.w	lr, r1, r3
    5f24:	ea52 3503 	orrs.w	r5, r2, r3, lsl #12
    5f28:	ea4f 3101 	mov.w	r1, r1, lsl #12
    5f2c:	f000 8088 	beq.w	6040 <__aeabi_ddiv+0x144>
    5f30:	ea4f 3303 	mov.w	r3, r3, lsl #12
    5f34:	f04f 5580 	mov.w	r5, #268435456	; 0x10000000
    5f38:	ea45 1313 	orr.w	r3, r5, r3, lsr #4
    5f3c:	ea43 6312 	orr.w	r3, r3, r2, lsr #24
    5f40:	ea4f 2202 	mov.w	r2, r2, lsl #8
    5f44:	ea45 1511 	orr.w	r5, r5, r1, lsr #4
    5f48:	ea45 6510 	orr.w	r5, r5, r0, lsr #24
    5f4c:	ea4f 2600 	mov.w	r6, r0, lsl #8
    5f50:	f00e 4100 	and.w	r1, lr, #2147483648	; 0x80000000
    5f54:	429d      	cmp	r5, r3
    5f56:	bf08      	it	eq
    5f58:	4296      	cmpeq	r6, r2
    5f5a:	f144 04fd 	adc.w	r4, r4, #253	; 0xfd
    5f5e:	f504 7440 	add.w	r4, r4, #768	; 0x300
    5f62:	d202      	bcs.n	5f6a <__aeabi_ddiv+0x6e>
    5f64:	085b      	lsrs	r3, r3, #1
    5f66:	ea4f 0232 	mov.w	r2, r2, rrx
    5f6a:	1ab6      	subs	r6, r6, r2
    5f6c:	eb65 0503 	sbc.w	r5, r5, r3
    5f70:	085b      	lsrs	r3, r3, #1
    5f72:	ea4f 0232 	mov.w	r2, r2, rrx
    5f76:	f44f 1080 	mov.w	r0, #1048576	; 0x100000
    5f7a:	f44f 2c00 	mov.w	ip, #524288	; 0x80000
    5f7e:	ebb6 0e02 	subs.w	lr, r6, r2
    5f82:	eb75 0e03 	sbcs.w	lr, r5, r3
    5f86:	bf22      	ittt	cs
    5f88:	1ab6      	subcs	r6, r6, r2
    5f8a:	4675      	movcs	r5, lr
    5f8c:	ea40 000c 	orrcs.w	r0, r0, ip
    5f90:	085b      	lsrs	r3, r3, #1
    5f92:	ea4f 0232 	mov.w	r2, r2, rrx
    5f96:	ebb6 0e02 	subs.w	lr, r6, r2
    5f9a:	eb75 0e03 	sbcs.w	lr, r5, r3
    5f9e:	bf22      	ittt	cs
    5fa0:	1ab6      	subcs	r6, r6, r2
    5fa2:	4675      	movcs	r5, lr
    5fa4:	ea40 005c 	orrcs.w	r0, r0, ip, lsr #1
    5fa8:	085b      	lsrs	r3, r3, #1
    5faa:	ea4f 0232 	mov.w	r2, r2, rrx
    5fae:	ebb6 0e02 	subs.w	lr, r6, r2
    5fb2:	eb75 0e03 	sbcs.w	lr, r5, r3
    5fb6:	bf22      	ittt	cs
    5fb8:	1ab6      	subcs	r6, r6, r2
    5fba:	4675      	movcs	r5, lr
    5fbc:	ea40 009c 	orrcs.w	r0, r0, ip, lsr #2
    5fc0:	085b      	lsrs	r3, r3, #1
    5fc2:	ea4f 0232 	mov.w	r2, r2, rrx
    5fc6:	ebb6 0e02 	subs.w	lr, r6, r2
    5fca:	eb75 0e03 	sbcs.w	lr, r5, r3
    5fce:	bf22      	ittt	cs
    5fd0:	1ab6      	subcs	r6, r6, r2
    5fd2:	4675      	movcs	r5, lr
    5fd4:	ea40 00dc 	orrcs.w	r0, r0, ip, lsr #3
    5fd8:	ea55 0e06 	orrs.w	lr, r5, r6
    5fdc:	d018      	beq.n	6010 <__aeabi_ddiv+0x114>
    5fde:	ea4f 1505 	mov.w	r5, r5, lsl #4
    5fe2:	ea45 7516 	orr.w	r5, r5, r6, lsr #28
    5fe6:	ea4f 1606 	mov.w	r6, r6, lsl #4
    5fea:	ea4f 03c3 	mov.w	r3, r3, lsl #3
    5fee:	ea43 7352 	orr.w	r3, r3, r2, lsr #29
    5ff2:	ea4f 02c2 	mov.w	r2, r2, lsl #3
    5ff6:	ea5f 1c1c 	movs.w	ip, ip, lsr #4
    5ffa:	d1c0      	bne.n	5f7e <__aeabi_ddiv+0x82>
    5ffc:	f411 1f80 	tst.w	r1, #1048576	; 0x100000
    6000:	d10b      	bne.n	601a <__aeabi_ddiv+0x11e>
    6002:	ea41 0100 	orr.w	r1, r1, r0
    6006:	f04f 0000 	mov.w	r0, #0
    600a:	f04f 4c00 	mov.w	ip, #2147483648	; 0x80000000
    600e:	e7b6      	b.n	5f7e <__aeabi_ddiv+0x82>
    6010:	f411 1f80 	tst.w	r1, #1048576	; 0x100000
    6014:	bf04      	itt	eq
    6016:	4301      	orreq	r1, r0
    6018:	2000      	moveq	r0, #0
    601a:	f1b4 0cfd 	subs.w	ip, r4, #253	; 0xfd
    601e:	bf88      	it	hi
    6020:	f5bc 6fe0 	cmphi.w	ip, #1792	; 0x700
    6024:	f63f aeaf 	bhi.w	5d86 <__aeabi_dmul+0xde>
    6028:	ebb5 0c03 	subs.w	ip, r5, r3
    602c:	bf04      	itt	eq
    602e:	ebb6 0c02 	subseq.w	ip, r6, r2
    6032:	ea5f 0c50 	movseq.w	ip, r0, lsr #1
    6036:	f150 0000 	adcs.w	r0, r0, #0
    603a:	eb41 5104 	adc.w	r1, r1, r4, lsl #20
    603e:	bd70      	pop	{r4, r5, r6, pc}
    6040:	f00e 4e00 	and.w	lr, lr, #2147483648	; 0x80000000
    6044:	ea4e 3111 	orr.w	r1, lr, r1, lsr #12
    6048:	eb14 045c 	adds.w	r4, r4, ip, lsr #1
    604c:	bfc2      	ittt	gt
    604e:	ebd4 050c 	rsbsgt	r5, r4, ip
    6052:	ea41 5104 	orrgt.w	r1, r1, r4, lsl #20
    6056:	bd70      	popgt	{r4, r5, r6, pc}
    6058:	f441 1180 	orr.w	r1, r1, #1048576	; 0x100000
    605c:	f04f 0e00 	mov.w	lr, #0
    6060:	3c01      	subs	r4, #1
    6062:	e690      	b.n	5d86 <__aeabi_dmul+0xde>
    6064:	ea45 0e06 	orr.w	lr, r5, r6
    6068:	e68d      	b.n	5d86 <__aeabi_dmul+0xde>
    606a:	ea0c 5513 	and.w	r5, ip, r3, lsr #20
    606e:	ea94 0f0c 	teq	r4, ip
    6072:	bf08      	it	eq
    6074:	ea95 0f0c 	teqeq	r5, ip
    6078:	f43f af3b 	beq.w	5ef2 <__aeabi_dmul+0x24a>
    607c:	ea94 0f0c 	teq	r4, ip
    6080:	d10a      	bne.n	6098 <__aeabi_ddiv+0x19c>
    6082:	ea50 3401 	orrs.w	r4, r0, r1, lsl #12
    6086:	f47f af34 	bne.w	5ef2 <__aeabi_dmul+0x24a>
    608a:	ea95 0f0c 	teq	r5, ip
    608e:	f47f af25 	bne.w	5edc <__aeabi_dmul+0x234>
    6092:	4610      	mov	r0, r2
    6094:	4619      	mov	r1, r3
    6096:	e72c      	b.n	5ef2 <__aeabi_dmul+0x24a>
    6098:	ea95 0f0c 	teq	r5, ip
    609c:	d106      	bne.n	60ac <__aeabi_ddiv+0x1b0>
    609e:	ea52 3503 	orrs.w	r5, r2, r3, lsl #12
    60a2:	f43f aefd 	beq.w	5ea0 <__aeabi_dmul+0x1f8>
    60a6:	4610      	mov	r0, r2
    60a8:	4619      	mov	r1, r3
    60aa:	e722      	b.n	5ef2 <__aeabi_dmul+0x24a>
    60ac:	ea50 0641 	orrs.w	r6, r0, r1, lsl #1
    60b0:	bf18      	it	ne
    60b2:	ea52 0643 	orrsne.w	r6, r2, r3, lsl #1
    60b6:	f47f aec5 	bne.w	5e44 <__aeabi_dmul+0x19c>
    60ba:	ea50 0441 	orrs.w	r4, r0, r1, lsl #1
    60be:	f47f af0d 	bne.w	5edc <__aeabi_dmul+0x234>
    60c2:	ea52 0543 	orrs.w	r5, r2, r3, lsl #1
    60c6:	f47f aeeb 	bne.w	5ea0 <__aeabi_dmul+0x1f8>
    60ca:	e712      	b.n	5ef2 <__aeabi_dmul+0x24a>

000060cc <__gedf2>:
    60cc:	f04f 3cff 	mov.w	ip, #4294967295
    60d0:	e006      	b.n	60e0 <__cmpdf2+0x4>
    60d2:	bf00      	nop

000060d4 <__ledf2>:
    60d4:	f04f 0c01 	mov.w	ip, #1
    60d8:	e002      	b.n	60e0 <__cmpdf2+0x4>
    60da:	bf00      	nop

000060dc <__cmpdf2>:
    60dc:	f04f 0c01 	mov.w	ip, #1
    60e0:	f84d cd04 	str.w	ip, [sp, #-4]!
    60e4:	ea4f 0c41 	mov.w	ip, r1, lsl #1
    60e8:	ea7f 5c6c 	mvns.w	ip, ip, asr #21
    60ec:	ea4f 0c43 	mov.w	ip, r3, lsl #1
    60f0:	bf18      	it	ne
    60f2:	ea7f 5c6c 	mvnsne.w	ip, ip, asr #21
    60f6:	d01b      	beq.n	6130 <__cmpdf2+0x54>
    60f8:	b001      	add	sp, #4
    60fa:	ea50 0c41 	orrs.w	ip, r0, r1, lsl #1
    60fe:	bf0c      	ite	eq
    6100:	ea52 0c43 	orrseq.w	ip, r2, r3, lsl #1
    6104:	ea91 0f03 	teqne	r1, r3
    6108:	bf02      	ittt	eq
    610a:	ea90 0f02 	teqeq	r0, r2
    610e:	2000      	moveq	r0, #0
    6110:	4770      	bxeq	lr
    6112:	f110 0f00 	cmn.w	r0, #0
    6116:	ea91 0f03 	teq	r1, r3
    611a:	bf58      	it	pl
    611c:	4299      	cmppl	r1, r3
    611e:	bf08      	it	eq
    6120:	4290      	cmpeq	r0, r2
    6122:	bf2c      	ite	cs
    6124:	17d8      	asrcs	r0, r3, #31
    6126:	ea6f 70e3 	mvncc.w	r0, r3, asr #31
    612a:	f040 0001 	orr.w	r0, r0, #1
    612e:	4770      	bx	lr
    6130:	ea4f 0c41 	mov.w	ip, r1, lsl #1
    6134:	ea7f 5c6c 	mvns.w	ip, ip, asr #21
    6138:	d102      	bne.n	6140 <__cmpdf2+0x64>
    613a:	ea50 3c01 	orrs.w	ip, r0, r1, lsl #12
    613e:	d107      	bne.n	6150 <__cmpdf2+0x74>
    6140:	ea4f 0c43 	mov.w	ip, r3, lsl #1
    6144:	ea7f 5c6c 	mvns.w	ip, ip, asr #21
    6148:	d1d6      	bne.n	60f8 <__cmpdf2+0x1c>
    614a:	ea52 3c03 	orrs.w	ip, r2, r3, lsl #12
    614e:	d0d3      	beq.n	60f8 <__cmpdf2+0x1c>
    6150:	f85d 0b04 	ldr.w	r0, [sp], #4
    6154:	4770      	bx	lr
    6156:	bf00      	nop

00006158 <__aeabi_cdrcmple>:
    6158:	4684      	mov	ip, r0
    615a:	4610      	mov	r0, r2
    615c:	4662      	mov	r2, ip
    615e:	468c      	mov	ip, r1
    6160:	4619      	mov	r1, r3
    6162:	4663      	mov	r3, ip
    6164:	e000      	b.n	6168 <__aeabi_cdcmpeq>
    6166:	bf00      	nop

00006168 <__aeabi_cdcmpeq>:
    6168:	b501      	push	{r0, lr}
    616a:	f7ff ffb7 	bl	60dc <__cmpdf2>
    616e:	2800      	cmp	r0, #0
    6170:	bf48      	it	mi
    6172:	f110 0f00 	cmnmi.w	r0, #0
    6176:	bd01      	pop	{r0, pc}

00006178 <__aeabi_dcmpeq>:
    6178:	f84d ed08 	str.w	lr, [sp, #-8]!
    617c:	f7ff fff4 	bl	6168 <__aeabi_cdcmpeq>
    6180:	bf0c      	ite	eq
    6182:	2001      	moveq	r0, #1
    6184:	2000      	movne	r0, #0
    6186:	f85d fb08 	ldr.w	pc, [sp], #8
    618a:	bf00      	nop

0000618c <__aeabi_dcmplt>:
    618c:	f84d ed08 	str.w	lr, [sp, #-8]!
    6190:	f7ff ffea 	bl	6168 <__aeabi_cdcmpeq>
    6194:	bf34      	ite	cc
    6196:	2001      	movcc	r0, #1
    6198:	2000      	movcs	r0, #0
    619a:	f85d fb08 	ldr.w	pc, [sp], #8
    619e:	bf00      	nop

000061a0 <__aeabi_dcmple>:
    61a0:	f84d ed08 	str.w	lr, [sp, #-8]!
    61a4:	f7ff ffe0 	bl	6168 <__aeabi_cdcmpeq>
    61a8:	bf94      	ite	ls
    61aa:	2001      	movls	r0, #1
    61ac:	2000      	movhi	r0, #0
    61ae:	f85d fb08 	ldr.w	pc, [sp], #8
    61b2:	bf00      	nop

000061b4 <__aeabi_dcmpge>:
    61b4:	f84d ed08 	str.w	lr, [sp, #-8]!
    61b8:	f7ff ffce 	bl	6158 <__aeabi_cdrcmple>
    61bc:	bf94      	ite	ls
    61be:	2001      	movls	r0, #1
    61c0:	2000      	movhi	r0, #0
    61c2:	f85d fb08 	ldr.w	pc, [sp], #8
    61c6:	bf00      	nop

000061c8 <__aeabi_dcmpgt>:
    61c8:	f84d ed08 	str.w	lr, [sp, #-8]!
    61cc:	f7ff ffc4 	bl	6158 <__aeabi_cdrcmple>
    61d0:	bf34      	ite	cc
    61d2:	2001      	movcc	r0, #1
    61d4:	2000      	movcs	r0, #0
    61d6:	f85d fb08 	ldr.w	pc, [sp], #8
    61da:	bf00      	nop

000061dc <__aeabi_d2iz>:
    61dc:	ea4f 0241 	mov.w	r2, r1, lsl #1
    61e0:	f512 1200 	adds.w	r2, r2, #2097152	; 0x200000
    61e4:	d215      	bcs.n	6212 <__aeabi_d2iz+0x36>
    61e6:	d511      	bpl.n	620c <__aeabi_d2iz+0x30>
    61e8:	f46f 7378 	mvn.w	r3, #992	; 0x3e0
    61ec:	ebb3 5262 	subs.w	r2, r3, r2, asr #21
    61f0:	d912      	bls.n	6218 <__aeabi_d2iz+0x3c>
    61f2:	ea4f 23c1 	mov.w	r3, r1, lsl #11
    61f6:	f043 4300 	orr.w	r3, r3, #2147483648	; 0x80000000
    61fa:	ea43 5350 	orr.w	r3, r3, r0, lsr #21
    61fe:	f011 4f00 	tst.w	r1, #2147483648	; 0x80000000
    6202:	fa23 f002 	lsr.w	r0, r3, r2
    6206:	bf18      	it	ne
    6208:	4240      	negne	r0, r0
    620a:	4770      	bx	lr
    620c:	f04f 0000 	mov.w	r0, #0
    6210:	4770      	bx	lr
    6212:	ea50 3001 	orrs.w	r0, r0, r1, lsl #12
    6216:	d105      	bne.n	6224 <__aeabi_d2iz+0x48>
    6218:	f011 4000 	ands.w	r0, r1, #2147483648	; 0x80000000
    621c:	bf08      	it	eq
    621e:	f06f 4000 	mvneq.w	r0, #2147483648	; 0x80000000
    6222:	4770      	bx	lr
    6224:	f04f 0000 	mov.w	r0, #0
    6228:	4770      	bx	lr
    622a:	bf00      	nop

0000622c <__aeabi_frsub>:
    622c:	f080 4000 	eor.w	r0, r0, #2147483648	; 0x80000000
    6230:	e002      	b.n	6238 <__addsf3>
    6232:	bf00      	nop

00006234 <__aeabi_fsub>:
    6234:	f081 4100 	eor.w	r1, r1, #2147483648	; 0x80000000

00006238 <__addsf3>:
    6238:	0042      	lsls	r2, r0, #1
    623a:	bf1f      	itttt	ne
    623c:	ea5f 0341 	movsne.w	r3, r1, lsl #1
    6240:	ea92 0f03 	teqne	r2, r3
    6244:	ea7f 6c22 	mvnsne.w	ip, r2, asr #24
    6248:	ea7f 6c23 	mvnsne.w	ip, r3, asr #24
    624c:	d06a      	beq.n	6324 <__addsf3+0xec>
    624e:	ea4f 6212 	mov.w	r2, r2, lsr #24
    6252:	ebd2 6313 	rsbs	r3, r2, r3, lsr #24
    6256:	bfc1      	itttt	gt
    6258:	18d2      	addgt	r2, r2, r3
    625a:	4041      	eorgt	r1, r0
    625c:	4048      	eorgt	r0, r1
    625e:	4041      	eorgt	r1, r0
    6260:	bfb8      	it	lt
    6262:	425b      	neglt	r3, r3
    6264:	2b19      	cmp	r3, #25
    6266:	bf88      	it	hi
    6268:	4770      	bxhi	lr
    626a:	f010 4f00 	tst.w	r0, #2147483648	; 0x80000000
    626e:	f440 0000 	orr.w	r0, r0, #8388608	; 0x800000
    6272:	f020 407f 	bic.w	r0, r0, #4278190080	; 0xff000000
    6276:	bf18      	it	ne
    6278:	4240      	negne	r0, r0
    627a:	f011 4f00 	tst.w	r1, #2147483648	; 0x80000000
    627e:	f441 0100 	orr.w	r1, r1, #8388608	; 0x800000
    6282:	f021 417f 	bic.w	r1, r1, #4278190080	; 0xff000000
    6286:	bf18      	it	ne
    6288:	4249      	negne	r1, r1
    628a:	ea92 0f03 	teq	r2, r3
    628e:	d03f      	beq.n	6310 <__addsf3+0xd8>
    6290:	f1a2 0201 	sub.w	r2, r2, #1
    6294:	fa41 fc03 	asr.w	ip, r1, r3
    6298:	eb10 000c 	adds.w	r0, r0, ip
    629c:	f1c3 0320 	rsb	r3, r3, #32
    62a0:	fa01 f103 	lsl.w	r1, r1, r3
    62a4:	f000 4300 	and.w	r3, r0, #2147483648	; 0x80000000
    62a8:	d502      	bpl.n	62b0 <__addsf3+0x78>
    62aa:	4249      	negs	r1, r1
    62ac:	eb60 0040 	sbc.w	r0, r0, r0, lsl #1
    62b0:	f5b0 0f00 	cmp.w	r0, #8388608	; 0x800000
    62b4:	d313      	bcc.n	62de <__addsf3+0xa6>
    62b6:	f1b0 7f80 	cmp.w	r0, #16777216	; 0x1000000
    62ba:	d306      	bcc.n	62ca <__addsf3+0x92>
    62bc:	0840      	lsrs	r0, r0, #1
    62be:	ea4f 0131 	mov.w	r1, r1, rrx
    62c2:	f102 0201 	add.w	r2, r2, #1
    62c6:	2afe      	cmp	r2, #254	; 0xfe
    62c8:	d251      	bcs.n	636e <__addsf3+0x136>
    62ca:	f1b1 4f00 	cmp.w	r1, #2147483648	; 0x80000000
    62ce:	eb40 50c2 	adc.w	r0, r0, r2, lsl #23
    62d2:	bf08      	it	eq
    62d4:	f020 0001 	biceq.w	r0, r0, #1
    62d8:	ea40 0003 	orr.w	r0, r0, r3
    62dc:	4770      	bx	lr
    62de:	0049      	lsls	r1, r1, #1
    62e0:	eb40 0000 	adc.w	r0, r0, r0
    62e4:	f410 0f00 	tst.w	r0, #8388608	; 0x800000
    62e8:	f1a2 0201 	sub.w	r2, r2, #1
    62ec:	d1ed      	bne.n	62ca <__addsf3+0x92>
    62ee:	fab0 fc80 	clz	ip, r0
    62f2:	f1ac 0c08 	sub.w	ip, ip, #8
    62f6:	ebb2 020c 	subs.w	r2, r2, ip
    62fa:	fa00 f00c 	lsl.w	r0, r0, ip
    62fe:	bfaa      	itet	ge
    6300:	eb00 50c2 	addge.w	r0, r0, r2, lsl #23
    6304:	4252      	neglt	r2, r2
    6306:	4318      	orrge	r0, r3
    6308:	bfbc      	itt	lt
    630a:	40d0      	lsrlt	r0, r2
    630c:	4318      	orrlt	r0, r3
    630e:	4770      	bx	lr
    6310:	f092 0f00 	teq	r2, #0
    6314:	f481 0100 	eor.w	r1, r1, #8388608	; 0x800000
    6318:	bf06      	itte	eq
    631a:	f480 0000 	eoreq.w	r0, r0, #8388608	; 0x800000
    631e:	3201      	addeq	r2, #1
    6320:	3b01      	subne	r3, #1
    6322:	e7b5      	b.n	6290 <__addsf3+0x58>
    6324:	ea4f 0341 	mov.w	r3, r1, lsl #1
    6328:	ea7f 6c22 	mvns.w	ip, r2, asr #24
    632c:	bf18      	it	ne
    632e:	ea7f 6c23 	mvnsne.w	ip, r3, asr #24
    6332:	d021      	beq.n	6378 <__addsf3+0x140>
    6334:	ea92 0f03 	teq	r2, r3
    6338:	d004      	beq.n	6344 <__addsf3+0x10c>
    633a:	f092 0f00 	teq	r2, #0
    633e:	bf08      	it	eq
    6340:	4608      	moveq	r0, r1
    6342:	4770      	bx	lr
    6344:	ea90 0f01 	teq	r0, r1
    6348:	bf1c      	itt	ne
    634a:	2000      	movne	r0, #0
    634c:	4770      	bxne	lr
    634e:	f012 4f7f 	tst.w	r2, #4278190080	; 0xff000000
    6352:	d104      	bne.n	635e <__addsf3+0x126>
    6354:	0040      	lsls	r0, r0, #1
    6356:	bf28      	it	cs
    6358:	f040 4000 	orrcs.w	r0, r0, #2147483648	; 0x80000000
    635c:	4770      	bx	lr
    635e:	f112 7200 	adds.w	r2, r2, #33554432	; 0x2000000
    6362:	bf3c      	itt	cc
    6364:	f500 0000 	addcc.w	r0, r0, #8388608	; 0x800000
    6368:	4770      	bxcc	lr
    636a:	f000 4300 	and.w	r3, r0, #2147483648	; 0x80000000
    636e:	f043 40fe 	orr.w	r0, r3, #2130706432	; 0x7f000000
    6372:	f440 0000 	orr.w	r0, r0, #8388608	; 0x800000
    6376:	4770      	bx	lr
    6378:	ea7f 6222 	mvns.w	r2, r2, asr #24
    637c:	bf16      	itet	ne
    637e:	4608      	movne	r0, r1
    6380:	ea7f 6323 	mvnseq.w	r3, r3, asr #24
    6384:	4601      	movne	r1, r0
    6386:	0242      	lsls	r2, r0, #9
    6388:	bf06      	itte	eq
    638a:	ea5f 2341 	movseq.w	r3, r1, lsl #9
    638e:	ea90 0f01 	teqeq	r0, r1
    6392:	f440 0080 	orrne.w	r0, r0, #4194304	; 0x400000
    6396:	4770      	bx	lr

00006398 <__aeabi_ui2f>:
    6398:	f04f 0300 	mov.w	r3, #0
    639c:	e004      	b.n	63a8 <__aeabi_i2f+0x8>
    639e:	bf00      	nop

000063a0 <__aeabi_i2f>:
    63a0:	f010 4300 	ands.w	r3, r0, #2147483648	; 0x80000000
    63a4:	bf48      	it	mi
    63a6:	4240      	negmi	r0, r0
    63a8:	ea5f 0c00 	movs.w	ip, r0
    63ac:	bf08      	it	eq
    63ae:	4770      	bxeq	lr
    63b0:	f043 4396 	orr.w	r3, r3, #1258291200	; 0x4b000000
    63b4:	4601      	mov	r1, r0
    63b6:	f04f 0000 	mov.w	r0, #0
    63ba:	e01c      	b.n	63f6 <__aeabi_l2f+0x2a>

000063bc <__aeabi_ul2f>:
    63bc:	ea50 0201 	orrs.w	r2, r0, r1
    63c0:	bf08      	it	eq
    63c2:	4770      	bxeq	lr
    63c4:	f04f 0300 	mov.w	r3, #0
    63c8:	e00a      	b.n	63e0 <__aeabi_l2f+0x14>
    63ca:	bf00      	nop

000063cc <__aeabi_l2f>:
    63cc:	ea50 0201 	orrs.w	r2, r0, r1
    63d0:	bf08      	it	eq
    63d2:	4770      	bxeq	lr
    63d4:	f011 4300 	ands.w	r3, r1, #2147483648	; 0x80000000
    63d8:	d502      	bpl.n	63e0 <__aeabi_l2f+0x14>
    63da:	4240      	negs	r0, r0
    63dc:	eb61 0141 	sbc.w	r1, r1, r1, lsl #1
    63e0:	ea5f 0c01 	movs.w	ip, r1
    63e4:	bf02      	ittt	eq
    63e6:	4684      	moveq	ip, r0
    63e8:	4601      	moveq	r1, r0
    63ea:	2000      	moveq	r0, #0
    63ec:	f043 43b6 	orr.w	r3, r3, #1526726656	; 0x5b000000
    63f0:	bf08      	it	eq
    63f2:	f1a3 5380 	subeq.w	r3, r3, #268435456	; 0x10000000
    63f6:	f5a3 0300 	sub.w	r3, r3, #8388608	; 0x800000
    63fa:	fabc f28c 	clz	r2, ip
    63fe:	3a08      	subs	r2, #8
    6400:	eba3 53c2 	sub.w	r3, r3, r2, lsl #23
    6404:	db10      	blt.n	6428 <__aeabi_l2f+0x5c>
    6406:	fa01 fc02 	lsl.w	ip, r1, r2
    640a:	4463      	add	r3, ip
    640c:	fa00 fc02 	lsl.w	ip, r0, r2
    6410:	f1c2 0220 	rsb	r2, r2, #32
    6414:	f1bc 4f00 	cmp.w	ip, #2147483648	; 0x80000000
    6418:	fa20 f202 	lsr.w	r2, r0, r2
    641c:	eb43 0002 	adc.w	r0, r3, r2
    6420:	bf08      	it	eq
    6422:	f020 0001 	biceq.w	r0, r0, #1
    6426:	4770      	bx	lr
    6428:	f102 0220 	add.w	r2, r2, #32
    642c:	fa01 fc02 	lsl.w	ip, r1, r2
    6430:	f1c2 0220 	rsb	r2, r2, #32
    6434:	ea50 004c 	orrs.w	r0, r0, ip, lsl #1
    6438:	fa21 f202 	lsr.w	r2, r1, r2
    643c:	eb43 0002 	adc.w	r0, r3, r2
    6440:	bf08      	it	eq
    6442:	ea20 70dc 	biceq.w	r0, r0, ip, lsr #31
    6446:	4770      	bx	lr

00006448 <__aeabi_fmul>:
    6448:	f04f 0cff 	mov.w	ip, #255	; 0xff
    644c:	ea1c 52d0 	ands.w	r2, ip, r0, lsr #23
    6450:	bf1e      	ittt	ne
    6452:	ea1c 53d1 	andsne.w	r3, ip, r1, lsr #23
    6456:	ea92 0f0c 	teqne	r2, ip
    645a:	ea93 0f0c 	teqne	r3, ip
    645e:	d06f      	beq.n	6540 <__aeabi_fmul+0xf8>
    6460:	441a      	add	r2, r3
    6462:	ea80 0c01 	eor.w	ip, r0, r1
    6466:	0240      	lsls	r0, r0, #9
    6468:	bf18      	it	ne
    646a:	ea5f 2141 	movsne.w	r1, r1, lsl #9
    646e:	d01e      	beq.n	64ae <__aeabi_fmul+0x66>
    6470:	f04f 6300 	mov.w	r3, #134217728	; 0x8000000
    6474:	ea43 1050 	orr.w	r0, r3, r0, lsr #5
    6478:	ea43 1151 	orr.w	r1, r3, r1, lsr #5
    647c:	fba0 3101 	umull	r3, r1, r0, r1
    6480:	f00c 4000 	and.w	r0, ip, #2147483648	; 0x80000000
    6484:	f5b1 0f00 	cmp.w	r1, #8388608	; 0x800000
    6488:	bf3e      	ittt	cc
    648a:	0049      	lslcc	r1, r1, #1
    648c:	ea41 71d3 	orrcc.w	r1, r1, r3, lsr #31
    6490:	005b      	lslcc	r3, r3, #1
    6492:	ea40 0001 	orr.w	r0, r0, r1
    6496:	f162 027f 	sbc.w	r2, r2, #127	; 0x7f
    649a:	2afd      	cmp	r2, #253	; 0xfd
    649c:	d81d      	bhi.n	64da <__aeabi_fmul+0x92>
    649e:	f1b3 4f00 	cmp.w	r3, #2147483648	; 0x80000000
    64a2:	eb40 50c2 	adc.w	r0, r0, r2, lsl #23
    64a6:	bf08      	it	eq
    64a8:	f020 0001 	biceq.w	r0, r0, #1
    64ac:	4770      	bx	lr
    64ae:	f090 0f00 	teq	r0, #0
    64b2:	f00c 4c00 	and.w	ip, ip, #2147483648	; 0x80000000
    64b6:	bf08      	it	eq
    64b8:	0249      	lsleq	r1, r1, #9
    64ba:	ea4c 2050 	orr.w	r0, ip, r0, lsr #9
    64be:	ea40 2051 	orr.w	r0, r0, r1, lsr #9
    64c2:	3a7f      	subs	r2, #127	; 0x7f
    64c4:	bfc2      	ittt	gt
    64c6:	f1d2 03ff 	rsbsgt	r3, r2, #255	; 0xff
    64ca:	ea40 50c2 	orrgt.w	r0, r0, r2, lsl #23
    64ce:	4770      	bxgt	lr
    64d0:	f440 0000 	orr.w	r0, r0, #8388608	; 0x800000
    64d4:	f04f 0300 	mov.w	r3, #0
    64d8:	3a01      	subs	r2, #1
    64da:	dc5d      	bgt.n	6598 <__aeabi_fmul+0x150>
    64dc:	f112 0f19 	cmn.w	r2, #25
    64e0:	bfdc      	itt	le
    64e2:	f000 4000 	andle.w	r0, r0, #2147483648	; 0x80000000
    64e6:	4770      	bxle	lr
    64e8:	f1c2 0200 	rsb	r2, r2, #0
    64ec:	0041      	lsls	r1, r0, #1
    64ee:	fa21 f102 	lsr.w	r1, r1, r2
    64f2:	f1c2 0220 	rsb	r2, r2, #32
    64f6:	fa00 fc02 	lsl.w	ip, r0, r2
    64fa:	ea5f 0031 	movs.w	r0, r1, rrx
    64fe:	f140 0000 	adc.w	r0, r0, #0
    6502:	ea53 034c 	orrs.w	r3, r3, ip, lsl #1
    6506:	bf08      	it	eq
    6508:	ea20 70dc 	biceq.w	r0, r0, ip, lsr #31
    650c:	4770      	bx	lr
    650e:	f092 0f00 	teq	r2, #0
    6512:	f000 4c00 	and.w	ip, r0, #2147483648	; 0x80000000
    6516:	bf02      	ittt	eq
    6518:	0040      	lsleq	r0, r0, #1
    651a:	f410 0f00 	tsteq.w	r0, #8388608	; 0x800000
    651e:	3a01      	subeq	r2, #1
    6520:	d0f9      	beq.n	6516 <__aeabi_fmul+0xce>
    6522:	ea40 000c 	orr.w	r0, r0, ip
    6526:	f093 0f00 	teq	r3, #0
    652a:	f001 4c00 	and.w	ip, r1, #2147483648	; 0x80000000
    652e:	bf02      	ittt	eq
    6530:	0049      	lsleq	r1, r1, #1
    6532:	f411 0f00 	tsteq.w	r1, #8388608	; 0x800000
    6536:	3b01      	subeq	r3, #1
    6538:	d0f9      	beq.n	652e <__aeabi_fmul+0xe6>
    653a:	ea41 010c 	orr.w	r1, r1, ip
    653e:	e78f      	b.n	6460 <__aeabi_fmul+0x18>
    6540:	ea0c 53d1 	and.w	r3, ip, r1, lsr #23
    6544:	ea92 0f0c 	teq	r2, ip
    6548:	bf18      	it	ne
    654a:	ea93 0f0c 	teqne	r3, ip
    654e:	d00a      	beq.n	6566 <__aeabi_fmul+0x11e>
    6550:	f030 4c00 	bics.w	ip, r0, #2147483648	; 0x80000000
    6554:	bf18      	it	ne
    6556:	f031 4c00 	bicsne.w	ip, r1, #2147483648	; 0x80000000
    655a:	d1d8      	bne.n	650e <__aeabi_fmul+0xc6>
    655c:	ea80 0001 	eor.w	r0, r0, r1
    6560:	f000 4000 	and.w	r0, r0, #2147483648	; 0x80000000
    6564:	4770      	bx	lr
    6566:	f090 0f00 	teq	r0, #0
    656a:	bf17      	itett	ne
    656c:	f090 4f00 	teqne	r0, #2147483648	; 0x80000000
    6570:	4608      	moveq	r0, r1
    6572:	f091 0f00 	teqne	r1, #0
    6576:	f091 4f00 	teqne	r1, #2147483648	; 0x80000000
    657a:	d014      	beq.n	65a6 <__aeabi_fmul+0x15e>
    657c:	ea92 0f0c 	teq	r2, ip
    6580:	d101      	bne.n	6586 <__aeabi_fmul+0x13e>
    6582:	0242      	lsls	r2, r0, #9
    6584:	d10f      	bne.n	65a6 <__aeabi_fmul+0x15e>
    6586:	ea93 0f0c 	teq	r3, ip
    658a:	d103      	bne.n	6594 <__aeabi_fmul+0x14c>
    658c:	024b      	lsls	r3, r1, #9
    658e:	bf18      	it	ne
    6590:	4608      	movne	r0, r1
    6592:	d108      	bne.n	65a6 <__aeabi_fmul+0x15e>
    6594:	ea80 0001 	eor.w	r0, r0, r1
    6598:	f000 4000 	and.w	r0, r0, #2147483648	; 0x80000000
    659c:	f040 40fe 	orr.w	r0, r0, #2130706432	; 0x7f000000
    65a0:	f440 0000 	orr.w	r0, r0, #8388608	; 0x800000
    65a4:	4770      	bx	lr
    65a6:	f040 40fe 	orr.w	r0, r0, #2130706432	; 0x7f000000
    65aa:	f440 0040 	orr.w	r0, r0, #12582912	; 0xc00000
    65ae:	4770      	bx	lr

000065b0 <__aeabi_fdiv>:
    65b0:	f04f 0cff 	mov.w	ip, #255	; 0xff
    65b4:	ea1c 52d0 	ands.w	r2, ip, r0, lsr #23
    65b8:	bf1e      	ittt	ne
    65ba:	ea1c 53d1 	andsne.w	r3, ip, r1, lsr #23
    65be:	ea92 0f0c 	teqne	r2, ip
    65c2:	ea93 0f0c 	teqne	r3, ip
    65c6:	d069      	beq.n	669c <__aeabi_fdiv+0xec>
    65c8:	eba2 0203 	sub.w	r2, r2, r3
    65cc:	ea80 0c01 	eor.w	ip, r0, r1
    65d0:	0249      	lsls	r1, r1, #9
    65d2:	ea4f 2040 	mov.w	r0, r0, lsl #9
    65d6:	d037      	beq.n	6648 <__aeabi_fdiv+0x98>
    65d8:	f04f 5380 	mov.w	r3, #268435456	; 0x10000000
    65dc:	ea43 1111 	orr.w	r1, r3, r1, lsr #4
    65e0:	ea43 1310 	orr.w	r3, r3, r0, lsr #4
    65e4:	f00c 4000 	and.w	r0, ip, #2147483648	; 0x80000000
    65e8:	428b      	cmp	r3, r1
    65ea:	bf38      	it	cc
    65ec:	005b      	lslcc	r3, r3, #1
    65ee:	f142 027d 	adc.w	r2, r2, #125	; 0x7d
    65f2:	f44f 0c00 	mov.w	ip, #8388608	; 0x800000
    65f6:	428b      	cmp	r3, r1
    65f8:	bf24      	itt	cs
    65fa:	1a5b      	subcs	r3, r3, r1
    65fc:	ea40 000c 	orrcs.w	r0, r0, ip
    6600:	ebb3 0f51 	cmp.w	r3, r1, lsr #1
    6604:	bf24      	itt	cs
    6606:	eba3 0351 	subcs.w	r3, r3, r1, lsr #1
    660a:	ea40 005c 	orrcs.w	r0, r0, ip, lsr #1
    660e:	ebb3 0f91 	cmp.w	r3, r1, lsr #2
    6612:	bf24      	itt	cs
    6614:	eba3 0391 	subcs.w	r3, r3, r1, lsr #2
    6618:	ea40 009c 	orrcs.w	r0, r0, ip, lsr #2
    661c:	ebb3 0fd1 	cmp.w	r3, r1, lsr #3
    6620:	bf24      	itt	cs
    6622:	eba3 03d1 	subcs.w	r3, r3, r1, lsr #3
    6626:	ea40 00dc 	orrcs.w	r0, r0, ip, lsr #3
    662a:	011b      	lsls	r3, r3, #4
    662c:	bf18      	it	ne
    662e:	ea5f 1c1c 	movsne.w	ip, ip, lsr #4
    6632:	d1e0      	bne.n	65f6 <__aeabi_fdiv+0x46>
    6634:	2afd      	cmp	r2, #253	; 0xfd
    6636:	f63f af50 	bhi.w	64da <__aeabi_fmul+0x92>
    663a:	428b      	cmp	r3, r1
    663c:	eb40 50c2 	adc.w	r0, r0, r2, lsl #23
    6640:	bf08      	it	eq
    6642:	f020 0001 	biceq.w	r0, r0, #1
    6646:	4770      	bx	lr
    6648:	f00c 4c00 	and.w	ip, ip, #2147483648	; 0x80000000
    664c:	ea4c 2050 	orr.w	r0, ip, r0, lsr #9
    6650:	327f      	adds	r2, #127	; 0x7f
    6652:	bfc2      	ittt	gt
    6654:	f1d2 03ff 	rsbsgt	r3, r2, #255	; 0xff
    6658:	ea40 50c2 	orrgt.w	r0, r0, r2, lsl #23
    665c:	4770      	bxgt	lr
    665e:	f440 0000 	orr.w	r0, r0, #8388608	; 0x800000
    6662:	f04f 0300 	mov.w	r3, #0
    6666:	3a01      	subs	r2, #1
    6668:	e737      	b.n	64da <__aeabi_fmul+0x92>
    666a:	f092 0f00 	teq	r2, #0
    666e:	f000 4c00 	and.w	ip, r0, #2147483648	; 0x80000000
    6672:	bf02      	ittt	eq
    6674:	0040      	lsleq	r0, r0, #1
    6676:	f410 0f00 	tsteq.w	r0, #8388608	; 0x800000
    667a:	3a01      	subeq	r2, #1
    667c:	d0f9      	beq.n	6672 <__aeabi_fdiv+0xc2>
    667e:	ea40 000c 	orr.w	r0, r0, ip
    6682:	f093 0f00 	teq	r3, #0
    6686:	f001 4c00 	and.w	ip, r1, #2147483648	; 0x80000000
    668a:	bf02      	ittt	eq
    668c:	0049      	lsleq	r1, r1, #1
    668e:	f411 0f00 	tsteq.w	r1, #8388608	; 0x800000
    6692:	3b01      	subeq	r3, #1
    6694:	d0f9      	beq.n	668a <__aeabi_fdiv+0xda>
    6696:	ea41 010c 	orr.w	r1, r1, ip
    669a:	e795      	b.n	65c8 <__aeabi_fdiv+0x18>
    669c:	ea0c 53d1 	and.w	r3, ip, r1, lsr #23
    66a0:	ea92 0f0c 	teq	r2, ip
    66a4:	d108      	bne.n	66b8 <__aeabi_fdiv+0x108>
    66a6:	0242      	lsls	r2, r0, #9
    66a8:	f47f af7d 	bne.w	65a6 <__aeabi_fmul+0x15e>
    66ac:	ea93 0f0c 	teq	r3, ip
    66b0:	f47f af70 	bne.w	6594 <__aeabi_fmul+0x14c>
    66b4:	4608      	mov	r0, r1
    66b6:	e776      	b.n	65a6 <__aeabi_fmul+0x15e>
    66b8:	ea93 0f0c 	teq	r3, ip
    66bc:	d104      	bne.n	66c8 <__aeabi_fdiv+0x118>
    66be:	024b      	lsls	r3, r1, #9
    66c0:	f43f af4c 	beq.w	655c <__aeabi_fmul+0x114>
    66c4:	4608      	mov	r0, r1
    66c6:	e76e      	b.n	65a6 <__aeabi_fmul+0x15e>
    66c8:	f030 4c00 	bics.w	ip, r0, #2147483648	; 0x80000000
    66cc:	bf18      	it	ne
    66ce:	f031 4c00 	bicsne.w	ip, r1, #2147483648	; 0x80000000
    66d2:	d1ca      	bne.n	666a <__aeabi_fdiv+0xba>
    66d4:	f030 4200 	bics.w	r2, r0, #2147483648	; 0x80000000
    66d8:	f47f af5c 	bne.w	6594 <__aeabi_fmul+0x14c>
    66dc:	f031 4300 	bics.w	r3, r1, #2147483648	; 0x80000000
    66e0:	f47f af3c 	bne.w	655c <__aeabi_fmul+0x114>
    66e4:	e75f      	b.n	65a6 <__aeabi_fmul+0x15e>
    66e6:	bf00      	nop

000066e8 <memcmp>:
    66e8:	2a03      	cmp	r2, #3
    66ea:	b470      	push	{r4, r5, r6}
    66ec:	d926      	bls.n	673c <memcmp+0x54>
    66ee:	ea41 0500 	orr.w	r5, r1, r0
    66f2:	07ad      	lsls	r5, r5, #30
    66f4:	4603      	mov	r3, r0
    66f6:	460c      	mov	r4, r1
    66f8:	d013      	beq.n	6722 <memcmp+0x3a>
    66fa:	7805      	ldrb	r5, [r0, #0]
    66fc:	780c      	ldrb	r4, [r1, #0]
    66fe:	42a5      	cmp	r5, r4
    6700:	d120      	bne.n	6744 <memcmp+0x5c>
    6702:	3a01      	subs	r2, #1
    6704:	2300      	movs	r3, #0
    6706:	e003      	b.n	6710 <memcmp+0x28>
    6708:	7865      	ldrb	r5, [r4, #1]
    670a:	5ccc      	ldrb	r4, [r1, r3]
    670c:	42a5      	cmp	r5, r4
    670e:	d119      	bne.n	6744 <memcmp+0x5c>
    6710:	429a      	cmp	r2, r3
    6712:	eb00 0403 	add.w	r4, r0, r3
    6716:	f103 0301 	add.w	r3, r3, #1
    671a:	d1f5      	bne.n	6708 <memcmp+0x20>
    671c:	2000      	movs	r0, #0
    671e:	bc70      	pop	{r4, r5, r6}
    6720:	4770      	bx	lr
    6722:	681e      	ldr	r6, [r3, #0]
    6724:	6825      	ldr	r5, [r4, #0]
    6726:	4621      	mov	r1, r4
    6728:	4618      	mov	r0, r3
    672a:	3404      	adds	r4, #4
    672c:	3304      	adds	r3, #4
    672e:	42ae      	cmp	r6, r5
    6730:	d104      	bne.n	673c <memcmp+0x54>
    6732:	3a04      	subs	r2, #4
    6734:	2a03      	cmp	r2, #3
    6736:	d8f4      	bhi.n	6722 <memcmp+0x3a>
    6738:	4621      	mov	r1, r4
    673a:	4618      	mov	r0, r3
    673c:	2a00      	cmp	r2, #0
    673e:	d1dc      	bne.n	66fa <memcmp+0x12>
    6740:	4610      	mov	r0, r2
    6742:	e7ec      	b.n	671e <memcmp+0x36>
    6744:	1b28      	subs	r0, r5, r4
    6746:	e7ea      	b.n	671e <memcmp+0x36>

00006748 <memcpy>:
    6748:	2a0f      	cmp	r2, #15
    674a:	b4f0      	push	{r4, r5, r6, r7}
    674c:	d93a      	bls.n	67c4 <memcpy+0x7c>
    674e:	ea41 0300 	orr.w	r3, r1, r0
    6752:	079b      	lsls	r3, r3, #30
    6754:	d138      	bne.n	67c8 <memcpy+0x80>
    6756:	460c      	mov	r4, r1
    6758:	4603      	mov	r3, r0
    675a:	4615      	mov	r5, r2
    675c:	6826      	ldr	r6, [r4, #0]
    675e:	3d10      	subs	r5, #16
    6760:	601e      	str	r6, [r3, #0]
    6762:	6866      	ldr	r6, [r4, #4]
    6764:	605e      	str	r6, [r3, #4]
    6766:	68a6      	ldr	r6, [r4, #8]
    6768:	609e      	str	r6, [r3, #8]
    676a:	68e6      	ldr	r6, [r4, #12]
    676c:	3410      	adds	r4, #16
    676e:	60de      	str	r6, [r3, #12]
    6770:	3310      	adds	r3, #16
    6772:	2d0f      	cmp	r5, #15
    6774:	d8f2      	bhi.n	675c <memcpy+0x14>
    6776:	f1a2 0410 	sub.w	r4, r2, #16
    677a:	f024 040f 	bic.w	r4, r4, #15
    677e:	f002 020f 	and.w	r2, r2, #15
    6782:	3410      	adds	r4, #16
    6784:	2a03      	cmp	r2, #3
    6786:	eb00 0304 	add.w	r3, r0, r4
    678a:	4421      	add	r1, r4
    678c:	d911      	bls.n	67b2 <memcpy+0x6a>
    678e:	460e      	mov	r6, r1
    6790:	461d      	mov	r5, r3
    6792:	4614      	mov	r4, r2
    6794:	f856 7b04 	ldr.w	r7, [r6], #4
    6798:	3c04      	subs	r4, #4
    679a:	2c03      	cmp	r4, #3
    679c:	f845 7b04 	str.w	r7, [r5], #4
    67a0:	d8f8      	bhi.n	6794 <memcpy+0x4c>
    67a2:	1f14      	subs	r4, r2, #4
    67a4:	f024 0403 	bic.w	r4, r4, #3
    67a8:	3404      	adds	r4, #4
    67aa:	f002 0203 	and.w	r2, r2, #3
    67ae:	1909      	adds	r1, r1, r4
    67b0:	191b      	adds	r3, r3, r4
    67b2:	b12a      	cbz	r2, 67c0 <memcpy+0x78>
    67b4:	f811 4b01 	ldrb.w	r4, [r1], #1
    67b8:	3a01      	subs	r2, #1
    67ba:	f803 4b01 	strb.w	r4, [r3], #1
    67be:	d1f9      	bne.n	67b4 <memcpy+0x6c>
    67c0:	bcf0      	pop	{r4, r5, r6, r7}
    67c2:	4770      	bx	lr
    67c4:	4603      	mov	r3, r0
    67c6:	e7f4      	b.n	67b2 <memcpy+0x6a>
    67c8:	4603      	mov	r3, r0
    67ca:	e7f3      	b.n	67b4 <memcpy+0x6c>

000067cc <memset>:
    67cc:	f010 0f03 	tst.w	r0, #3
    67d0:	b470      	push	{r4, r5, r6}
    67d2:	4603      	mov	r3, r0
    67d4:	d03f      	beq.n	6856 <memset+0x8a>
    67d6:	2a00      	cmp	r2, #0
    67d8:	d03b      	beq.n	6852 <memset+0x86>
    67da:	b2cd      	uxtb	r5, r1
    67dc:	e001      	b.n	67e2 <memset+0x16>
    67de:	2a00      	cmp	r2, #0
    67e0:	d037      	beq.n	6852 <memset+0x86>
    67e2:	f803 5b01 	strb.w	r5, [r3], #1
    67e6:	3a01      	subs	r2, #1
    67e8:	f013 0f03 	tst.w	r3, #3
    67ec:	461c      	mov	r4, r3
    67ee:	d1f6      	bne.n	67de <memset+0x12>
    67f0:	2a03      	cmp	r2, #3
    67f2:	d928      	bls.n	6846 <memset+0x7a>
    67f4:	b2cd      	uxtb	r5, r1
    67f6:	ea45 2505 	orr.w	r5, r5, r5, lsl #8
    67fa:	2a0f      	cmp	r2, #15
    67fc:	ea45 4505 	orr.w	r5, r5, r5, lsl #16
    6800:	d913      	bls.n	682a <memset+0x5e>
    6802:	4623      	mov	r3, r4
    6804:	4616      	mov	r6, r2
    6806:	3e10      	subs	r6, #16
    6808:	601d      	str	r5, [r3, #0]
    680a:	605d      	str	r5, [r3, #4]
    680c:	609d      	str	r5, [r3, #8]
    680e:	60dd      	str	r5, [r3, #12]
    6810:	3310      	adds	r3, #16
    6812:	2e0f      	cmp	r6, #15
    6814:	d8f7      	bhi.n	6806 <memset+0x3a>
    6816:	f1a2 0310 	sub.w	r3, r2, #16
    681a:	f023 030f 	bic.w	r3, r3, #15
    681e:	f002 020f 	and.w	r2, r2, #15
    6822:	3310      	adds	r3, #16
    6824:	2a03      	cmp	r2, #3
    6826:	441c      	add	r4, r3
    6828:	d90d      	bls.n	6846 <memset+0x7a>
    682a:	4626      	mov	r6, r4
    682c:	4613      	mov	r3, r2
    682e:	3b04      	subs	r3, #4
    6830:	2b03      	cmp	r3, #3
    6832:	f846 5b04 	str.w	r5, [r6], #4
    6836:	d8fa      	bhi.n	682e <memset+0x62>
    6838:	1f13      	subs	r3, r2, #4
    683a:	f023 0303 	bic.w	r3, r3, #3
    683e:	3304      	adds	r3, #4
    6840:	f002 0203 	and.w	r2, r2, #3
    6844:	18e4      	adds	r4, r4, r3
    6846:	b122      	cbz	r2, 6852 <memset+0x86>
    6848:	b2c9      	uxtb	r1, r1
    684a:	3a01      	subs	r2, #1
    684c:	f804 1b01 	strb.w	r1, [r4], #1
    6850:	d1fb      	bne.n	684a <memset+0x7e>
    6852:	bc70      	pop	{r4, r5, r6}
    6854:	4770      	bx	lr
    6856:	4604      	mov	r4, r0
    6858:	e7ca      	b.n	67f0 <memset+0x24>
    685a:	bf00      	nop

0000685c <strncpy>:
    685c:	ea41 0300 	orr.w	r3, r1, r0
    6860:	079b      	lsls	r3, r3, #30
    6862:	b470      	push	{r4, r5, r6}
    6864:	460d      	mov	r5, r1
    6866:	4604      	mov	r4, r0
    6868:	d12a      	bne.n	68c0 <strncpy+0x64>
    686a:	2a03      	cmp	r2, #3
    686c:	d817      	bhi.n	689e <strncpy+0x42>
    686e:	b1a2      	cbz	r2, 689a <strncpy+0x3e>
    6870:	780e      	ldrb	r6, [r1, #0]
    6872:	1e53      	subs	r3, r2, #1
    6874:	f804 6b01 	strb.w	r6, [r4], #1
    6878:	b14e      	cbz	r6, 688e <strncpy+0x32>
    687a:	4622      	mov	r2, r4
    687c:	b16b      	cbz	r3, 689a <strncpy+0x3e>
    687e:	f811 5f01 	ldrb.w	r5, [r1, #1]!
    6882:	3b01      	subs	r3, #1
    6884:	f802 5b01 	strb.w	r5, [r2], #1
    6888:	4614      	mov	r4, r2
    688a:	2d00      	cmp	r5, #0
    688c:	d1f6      	bne.n	687c <strncpy+0x20>
    688e:	b123      	cbz	r3, 689a <strncpy+0x3e>
    6890:	2200      	movs	r2, #0
    6892:	3b01      	subs	r3, #1
    6894:	f804 2b01 	strb.w	r2, [r4], #1
    6898:	d1fb      	bne.n	6892 <strncpy+0x36>
    689a:	bc70      	pop	{r4, r5, r6}
    689c:	4770      	bx	lr
    689e:	4629      	mov	r1, r5
    68a0:	f855 3b04 	ldr.w	r3, [r5], #4
    68a4:	f1a3 3601 	sub.w	r6, r3, #16843009	; 0x1010101
    68a8:	ea26 0603 	bic.w	r6, r6, r3
    68ac:	f016 3f80 	tst.w	r6, #2155905152	; 0x80808080
    68b0:	d1dd      	bne.n	686e <strncpy+0x12>
    68b2:	3a04      	subs	r2, #4
    68b4:	2a03      	cmp	r2, #3
    68b6:	f844 3b04 	str.w	r3, [r4], #4
    68ba:	d8f0      	bhi.n	689e <strncpy+0x42>
    68bc:	4629      	mov	r1, r5
    68be:	e7d6      	b.n	686e <strncpy+0x12>
    68c0:	4604      	mov	r4, r0
    68c2:	e7d4      	b.n	686e <strncpy+0x12>
    68c4:	4f544f4d 	.word	0x4f544f4d
    68c8:	00000052 	.word	0x00000052
    68cc:	4c525443 	.word	0x4c525443
    68d0:	00000000 	.word	0x00000000
    68d4:	004e4143 	.word	0x004e4143
    68d8:	50494c53 	.word	0x50494c53
    68dc:	00000000 	.word	0x00000000

000068e0 <g_pulDCRegs>:
    68e0:	400fe010 400fe014 400fe01c 400fe010     ...@...@...@...@

000068f0 <g_pulSRCRRegs>:
    68f0:	400fe040 400fe044 400fe048              @..@D..@H..@

000068fc <g_pulRCGCRegs>:
    68fc:	400fe100 400fe104 400fe108              ...@...@...@

00006908 <g_pulSCGCRegs>:
    6908:	400fe110 400fe114 400fe118              ...@...@...@

00006914 <g_pulDCGCRegs>:
    6914:	400fe120 400fe124 400fe128               ..@$..@(..@

00006920 <g_pulXtals>:
    6920:	000f4240 001c2000 001e8480 00258000     @B... ........%.
    6930:	00369e99 00384000 003d0900 003e8000     ..6..@8...=...>.
    6940:	004b0000 004c4b40 004e2000 005b8d80     ..K.@KL.. N...[.
    6950:	005dc000 00708000 007a1200 007d0000     ..]...p...z...}.
    6960:	00989680 00b71b00 00bb8000 00cee8c0     ................
    6970:	00da7a64 00f42400 00fa0000              dz...$......

0000697c <g_usCANBitValues>:
    697c:	02000100 13401240 24802380 35c034c0     ....@.@..#.$.4.5
    698c:	46c045c0 57c056c0 68c067c0 79c078c0     .E.F.V.W.g.h.x.y
    699c:	6a6f6841 004e4143 00000000 454c4449     AhojCAN.....IDLE
    69ac:	00000000                                ....

000069b0 <ucExpectedStackBytes.5748>:
    69b0:	a5a5a5a5 a5a5a5a5 a5a5a5a5 a5a5a5a5     ................
    69c0:	a5a5a5a5                                ....

000069c4 <g_pulPriority>:
    69c4:	00000700 00000600 00000500 00000400     ................
    69d4:	00000300 00000200 00000100 00000000     ................

000069e4 <g_pulRegs>:
    69e4:	00000000 e000ed18 e000ed1c e000ed20     ............ ...
    69f4:	e000e400 e000e404 e000e408 e000e40c     ................
    6a04:	e000e410 e000e414 e000e418 e000e41c     ................
    6a14:	e000e420 e000e424 e000e428 e000e42c      ...$...(...,...
    6a24:	e000e430 e000e434 0044454c 00434341     0...4...LED.ACC.

00006a34 <heapSTRUCT_SIZE>:
    6a34:	00000010                                         ..
